SF:/Users/a.gerasimchuk/Documents/git/pjs/crates/pjs-bench/src/lib.rs
FN:155,_RNCNvMCs20qzU6x9D0v_9pjs_benchNtB4_10BenchSuite20generate_social_feed0B4_
FN:181,_RNCNvMCs20qzU6x9D0v_9pjs_benchNtB4_10BenchSuite24generate_product_catalog0B4_
FN:197,_RNCNvMCs20qzU6x9D0v_9pjs_benchNtB4_10BenchSuite24generate_product_catalogs_0B4_
FN:248,_RNvNtCs20qzU6x9D0v_9pjs_bench8features13has_streaming
FN:253,_RNvNtCs20qzU6x9D0v_9pjs_bench8features8has_simd
FN:117,_RNCNvMs0_NtCs20qzU6x9D0v_9pjs_bench8fallbackNtB7_17JsonReconstructor13process_frame0B9_
FN:119,_RNCNvMs0_NtCs20qzU6x9D0v_9pjs_bench8fallbackNtB7_17JsonReconstructor13process_frames_0B9_
FN:146,_RNvMCs20qzU6x9D0v_9pjs_benchNtB2_10BenchSuite11with_config
FN:46,_RNvMNtCs20qzU6x9D0v_9pjs_bench8fallbackNtB2_14StreamerConfig10chunk_size
FN:50,_RNvMNtCs20qzU6x9D0v_9pjs_bench8fallbackNtB2_14StreamerConfig15with_chunk_size
FN:59,_RNvMNtCs20qzU6x9D0v_9pjs_bench8fallbackNtB2_14StreamerConfig17with_memory_limit
FN:55,_RNvMNtCs20qzU6x9D0v_9pjs_bench8fallbackNtB2_14StreamerConfig23with_priority_threshold
FN:42,_RNvMNtCs20qzU6x9D0v_9pjs_bench8fallbackNtB2_14StreamerConfig3new
FN:124,_RNvMs0_NtCs20qzU6x9D0v_9pjs_bench8fallbackNtB5_17JsonReconstructor13current_state
FN:115,_RNvMs0_NtCs20qzU6x9D0v_9pjs_bench8fallbackNtB5_17JsonReconstructor13process_frame
FN:111,_RNvMs0_NtCs20qzU6x9D0v_9pjs_bench8fallbackNtB5_17JsonReconstructor3new
FN:87,_RNvMs_NtCs20qzU6x9D0v_9pjs_bench8fallbackNtB4_16PriorityStreamer22create_priority_frames
FN:83,_RNvMs_NtCs20qzU6x9D0v_9pjs_bench8fallbackNtB4_16PriorityStreamer3new
FN:210,_RNvXs_Cs20qzU6x9D0v_9pjs_benchNtB4_10BenchSuiteNtNtCsd2KPTObkMr_4core7default7Default7default
FN:151,_RNvMCs20qzU6x9D0v_9pjs_benchNtB2_10BenchSuite20generate_social_feed
FN:177,_RNvMCs20qzU6x9D0v_9pjs_benchNtB2_10BenchSuite24generate_product_catalog
FN:139,_RNvMCs20qzU6x9D0v_9pjs_benchNtB2_10BenchSuite3new
FN:204,_RNvMCs20qzU6x9D0v_9pjs_benchNtB2_10BenchSuite6config
FN:236,_RNvMs0_Cs20qzU6x9D0v_9pjs_benchNtB5_12BenchMetrics16efficiency_ratio
FN:226,_RNvMs0_Cs20qzU6x9D0v_9pjs_benchNtB5_12BenchMetrics3new
FN:298,_RNvNtCs20qzU6x9D0v_9pjs_bench5testss_12test_metrics
FN:287,_RNvNtCs20qzU6x9D0v_9pjs_bench5testss_20test_data_generation
FN:274,_RNvNtCs20qzU6x9D0v_9pjs_bench5testss_22test_feature_detection
FN:267,_RNvNtCs20qzU6x9D0v_9pjs_bench5testss_25test_bench_suite_creation
FNDA:10,_RNCNvMCs20qzU6x9D0v_9pjs_benchNtB4_10BenchSuite20generate_social_feed0B4_
FNDA:5,_RNCNvMCs20qzU6x9D0v_9pjs_benchNtB4_10BenchSuite24generate_product_catalog0B4_
FNDA:10,_RNCNvMCs20qzU6x9D0v_9pjs_benchNtB4_10BenchSuite24generate_product_catalogs_0B4_
FNDA:1,_RNvNtCs20qzU6x9D0v_9pjs_bench8features13has_streaming
FNDA:1,_RNvNtCs20qzU6x9D0v_9pjs_bench8features8has_simd
FNDA:0,_RNCNvMs0_NtCs20qzU6x9D0v_9pjs_bench8fallbackNtB7_17JsonReconstructor13process_frame0B9_
FNDA:0,_RNCNvMs0_NtCs20qzU6x9D0v_9pjs_bench8fallbackNtB7_17JsonReconstructor13process_frames_0B9_
FNDA:0,_RNvMCs20qzU6x9D0v_9pjs_benchNtB2_10BenchSuite11with_config
FNDA:0,_RNvMNtCs20qzU6x9D0v_9pjs_bench8fallbackNtB2_14StreamerConfig10chunk_size
FNDA:0,_RNvMNtCs20qzU6x9D0v_9pjs_bench8fallbackNtB2_14StreamerConfig15with_chunk_size
FNDA:0,_RNvMNtCs20qzU6x9D0v_9pjs_bench8fallbackNtB2_14StreamerConfig17with_memory_limit
FNDA:0,_RNvMNtCs20qzU6x9D0v_9pjs_bench8fallbackNtB2_14StreamerConfig23with_priority_threshold
FNDA:0,_RNvMNtCs20qzU6x9D0v_9pjs_bench8fallbackNtB2_14StreamerConfig3new
FNDA:0,_RNvMs0_NtCs20qzU6x9D0v_9pjs_bench8fallbackNtB5_17JsonReconstructor13current_state
FNDA:0,_RNvMs0_NtCs20qzU6x9D0v_9pjs_bench8fallbackNtB5_17JsonReconstructor13process_frame
FNDA:0,_RNvMs0_NtCs20qzU6x9D0v_9pjs_bench8fallbackNtB5_17JsonReconstructor3new
FNDA:0,_RNvMs_NtCs20qzU6x9D0v_9pjs_bench8fallbackNtB4_16PriorityStreamer22create_priority_frames
FNDA:0,_RNvMs_NtCs20qzU6x9D0v_9pjs_bench8fallbackNtB4_16PriorityStreamer3new
FNDA:0,_RNvXs_Cs20qzU6x9D0v_9pjs_benchNtB4_10BenchSuiteNtNtCsd2KPTObkMr_4core7default7Default7default
FNDA:1,_RNvMCs20qzU6x9D0v_9pjs_benchNtB2_10BenchSuite20generate_social_feed
FNDA:1,_RNvMCs20qzU6x9D0v_9pjs_benchNtB2_10BenchSuite24generate_product_catalog
FNDA:2,_RNvMCs20qzU6x9D0v_9pjs_benchNtB2_10BenchSuite3new
FNDA:1,_RNvMCs20qzU6x9D0v_9pjs_benchNtB2_10BenchSuite6config
FNDA:1,_RNvMs0_Cs20qzU6x9D0v_9pjs_benchNtB5_12BenchMetrics16efficiency_ratio
FNDA:2,_RNvMs0_Cs20qzU6x9D0v_9pjs_benchNtB5_12BenchMetrics3new
FNDA:1,_RNvNtCs20qzU6x9D0v_9pjs_bench5testss_12test_metrics
FNDA:1,_RNvNtCs20qzU6x9D0v_9pjs_bench5testss_20test_data_generation
FNDA:1,_RNvNtCs20qzU6x9D0v_9pjs_bench5testss_22test_feature_detection
FNDA:1,_RNvNtCs20qzU6x9D0v_9pjs_bench5testss_25test_bench_suite_creation
FNF:29
FNH:15
DA:42,0
DA:43,0
DA:44,0
DA:46,0
DA:47,0
DA:48,0
DA:50,0
DA:51,0
DA:52,0
DA:53,0
DA:55,0
DA:56,0
DA:57,0
DA:59,0
DA:60,0
DA:61,0
DA:83,0
DA:84,0
DA:85,0
DA:87,0
DA:89,0
DA:90,0
DA:91,0
DA:94,0
DA:95,0
DA:96,0
DA:97,0
DA:98,0
DA:99,0
DA:100,0
DA:102,0
DA:111,0
DA:112,0
DA:113,0
DA:115,0
DA:116,0
DA:117,0
DA:118,0
DA:119,0
DA:120,0
DA:121,0
DA:122,0
DA:124,0
DA:125,0
DA:126,0
DA:139,2
DA:140,2
DA:141,2
DA:142,2
DA:143,2
DA:146,0
DA:147,0
DA:148,0
DA:151,1
DA:154,1
DA:155,10
DA:156,10
DA:157,10
DA:158,10
DA:159,10
DA:160,10
DA:161,10
DA:162,10
DA:163,10
DA:165,10
DA:166,1
DA:168,1
DA:169,1
DA:170,1
DA:171,1
DA:173,1
DA:174,1
DA:177,1
DA:180,1
DA:181,5
DA:182,5
DA:183,5
DA:184,5
DA:185,5
DA:186,5
DA:187,5
DA:188,5
DA:190,5
DA:191,1
DA:193,1
DA:194,1
DA:195,1
DA:196,1
DA:197,10
DA:200,1
DA:201,1
DA:204,1
DA:205,1
DA:206,1
DA:210,0
DA:211,0
DA:212,0
DA:226,2
DA:227,2
DA:228,2
DA:229,2
DA:230,2
DA:231,2
DA:232,2
DA:233,2
DA:236,1
DA:237,1
DA:238,1
DA:239,1
DA:241,1
DA:242,1
DA:248,1
DA:249,1
DA:250,1
DA:253,1
DA:254,1
DA:259,1
DA:267,1
DA:268,1
DA:270,1
DA:271,1
DA:274,1
DA:278,1
DA:279,1
DA:282,1
DA:283,1
DA:284,1
DA:287,1
DA:288,1
DA:290,1
DA:291,1
DA:293,1
DA:294,1
DA:295,1
DA:298,1
DA:299,1
DA:300,1
DA:302,1
DA:303,1
DA:304,1
BRF:0
BRH:0
LF:145
LH:92
end_of_record
SF:/Users/a.gerasimchuk/Documents/git/pjs/crates/pjs-core/src/application/handlers/command_handlers.rs
FN:93,_RNCNCNvXININtNtNtCskc4teZ54Auy_8pjson_rs11application8handlers16command_handlerss2_0ppEINtB9_21SessionCommandHandlerppEINtBb_14CommandHandlerNtNtBd_8commands19CreateStreamCommandNtNtNtNtBf_6domain13value_objects9stream_id8StreamIdE6handle00Bf_
FN:143,_RNCNCNvXININtNtNtCskc4teZ54Auy_8pjson_rs11application8handlers16command_handlerss3_0ppEINtB9_21SessionCommandHandlerppEINtBb_14CommandHandlerNtNtBd_8commands18StartStreamCommanduE6handle00Bf_
FN:184,_RNCNCNvXININtNtNtCskc4teZ54Auy_8pjson_rs11application8handlers16command_handlerss4_0ppEINtB9_21SessionCommandHandlerppEINtBb_14CommandHandlerNtNtBd_8commands21CompleteStreamCommanduE6handle00Bf_
FN:225,_RNCNCNvXININtNtNtCskc4teZ54Auy_8pjson_rs11application8handlers16command_handlerss5_0ppEINtB9_21SessionCommandHandlerppEINtBb_14CommandHandlerNtNtBd_8commands21GenerateFramesCommandINtNtCs7fnLZwG9eJV_5alloc3vec3VecNtNtNtNtBf_6domain8entities5frame5FrameEE6handle00Bf_
FN:230,_RNCNCNvXININtNtNtCskc4teZ54Auy_8pjson_rs11application8handlers16command_handlerss5_0ppEINtB9_21SessionCommandHandlerppEINtBb_14CommandHandlerNtNtBd_8commands21GenerateFramesCommandINtNtCs7fnLZwG9eJV_5alloc3vec3VecNtNtNtNtBf_6domain8entities5frame5FrameEE6handle0s_0Bf_
FN:271,_RNCNCNvXININtNtNtCskc4teZ54Auy_8pjson_rs11application8handlers16command_handlerss6_0ppEINtB9_21SessionCommandHandlerppEINtBb_14CommandHandlerNtNtBd_8commands26BatchGenerateFramesCommandINtNtCs7fnLZwG9eJV_5alloc3vec3VecNtNtNtNtBf_6domain8entities5frame5FrameEE6handle00Bf_
FN:312,_RNCNCNvXININtNtNtCskc4teZ54Auy_8pjson_rs11application8handlers16command_handlerss7_0ppEINtB9_21SessionCommandHandlerppEINtBb_14CommandHandlerNtNtBd_8commands19CloseSessionCommanduE6handle00Bf_
FN:45,_RNCNvXININtNtNtCskc4teZ54Auy_8pjson_rs11application8handlers16command_handlerss1_0ppEINtB7_21SessionCommandHandlerppEINtB9_14CommandHandlerNtNtBb_8commands20CreateSessionCommandNtNtNtNtBd_6domain13value_objects10session_id9SessionIdE6handle0Bd_
FN:86,_RNCNvXININtNtNtCskc4teZ54Auy_8pjson_rs11application8handlers16command_handlerss2_0ppEINtB7_21SessionCommandHandlerppEINtB9_14CommandHandlerNtNtBb_8commands19CreateStreamCommandNtNtNtNtBd_6domain13value_objects9stream_id8StreamIdE6handle0Bd_
FN:136,_RNCNvXININtNtNtCskc4teZ54Auy_8pjson_rs11application8handlers16command_handlerss3_0ppEINtB7_21SessionCommandHandlerppEINtB9_14CommandHandlerNtNtBb_8commands18StartStreamCommanduE6handle0Bd_
FN:177,_RNCNvXININtNtNtCskc4teZ54Auy_8pjson_rs11application8handlers16command_handlerss4_0ppEINtB7_21SessionCommandHandlerppEINtB9_14CommandHandlerNtNtBb_8commands21CompleteStreamCommanduE6handle0Bd_
FN:218,_RNCNvXININtNtNtCskc4teZ54Auy_8pjson_rs11application8handlers16command_handlerss5_0ppEINtB7_21SessionCommandHandlerppEINtB9_14CommandHandlerNtNtBb_8commands21GenerateFramesCommandINtNtCs7fnLZwG9eJV_5alloc3vec3VecNtNtNtNtBd_6domain8entities5frame5FrameEE6handle0Bd_
FN:264,_RNCNvXININtNtNtCskc4teZ54Auy_8pjson_rs11application8handlers16command_handlerss6_0ppEINtB7_21SessionCommandHandlerppEINtB9_14CommandHandlerNtNtBb_8commands26BatchGenerateFramesCommandINtNtCs7fnLZwG9eJV_5alloc3vec3VecNtNtNtNtBd_6domain8entities5frame5FrameEE6handle0Bd_
FN:305,_RNCNvXININtNtNtCskc4teZ54Auy_8pjson_rs11application8handlers16command_handlerss7_0ppEINtB7_21SessionCommandHandlerppEINtB9_14CommandHandlerNtNtBb_8commands19CloseSessionCommanduE6handle0Bd_
FN:31,_RNvMNtNtNtCskc4teZ54Auy_8pjson_rs11application8handlers16command_handlersINtB2_21SessionCommandHandlerppE3newB8_
FN:45,_RNvXININtNtNtCskc4teZ54Auy_8pjson_rs11application8handlers16command_handlerss1_0ppEINtB5_21SessionCommandHandlerppEINtB7_14CommandHandlerNtNtB9_8commands20CreateSessionCommandNtNtNtNtBb_6domain13value_objects10session_id9SessionIdE6handleBb_
FN:86,_RNvXININtNtNtCskc4teZ54Auy_8pjson_rs11application8handlers16command_handlerss2_0ppEINtB5_21SessionCommandHandlerppEINtB7_14CommandHandlerNtNtB9_8commands19CreateStreamCommandNtNtNtNtBb_6domain13value_objects9stream_id8StreamIdE6handleBb_
FN:136,_RNvXININtNtNtCskc4teZ54Auy_8pjson_rs11application8handlers16command_handlerss3_0ppEINtB5_21SessionCommandHandlerppEINtB7_14CommandHandlerNtNtB9_8commands18StartStreamCommanduE6handleBb_
FN:177,_RNvXININtNtNtCskc4teZ54Auy_8pjson_rs11application8handlers16command_handlerss4_0ppEINtB5_21SessionCommandHandlerppEINtB7_14CommandHandlerNtNtB9_8commands21CompleteStreamCommanduE6handleBb_
FN:218,_RNvXININtNtNtCskc4teZ54Auy_8pjson_rs11application8handlers16command_handlerss5_0ppEINtB5_21SessionCommandHandlerppEINtB7_14CommandHandlerNtNtB9_8commands21GenerateFramesCommandINtNtCs7fnLZwG9eJV_5alloc3vec3VecNtNtNtNtBb_6domain8entities5frame5FrameEE6handleBb_
FN:264,_RNvXININtNtNtCskc4teZ54Auy_8pjson_rs11application8handlers16command_handlerss6_0ppEINtB5_21SessionCommandHandlerppEINtB7_14CommandHandlerNtNtB9_8commands26BatchGenerateFramesCommandINtNtCs7fnLZwG9eJV_5alloc3vec3VecNtNtNtNtBb_6domain8entities5frame5FrameEE6handleBb_
FN:305,_RNvXININtNtNtCskc4teZ54Auy_8pjson_rs11application8handlers16command_handlerss7_0ppEINtB5_21SessionCommandHandlerppEINtB7_14CommandHandlerNtNtB9_8commands19CloseSessionCommanduE6handleBb_
FNDA:0,_RNCNCNvXININtNtNtCskc4teZ54Auy_8pjson_rs11application8handlers16command_handlerss2_0ppEINtB9_21SessionCommandHandlerppEINtBb_14CommandHandlerNtNtBd_8commands19CreateStreamCommandNtNtNtNtBf_6domain13value_objects9stream_id8StreamIdE6handle00Bf_
FNDA:0,_RNCNCNvXININtNtNtCskc4teZ54Auy_8pjson_rs11application8handlers16command_handlerss3_0ppEINtB9_21SessionCommandHandlerppEINtBb_14CommandHandlerNtNtBd_8commands18StartStreamCommanduE6handle00Bf_
FNDA:0,_RNCNCNvXININtNtNtCskc4teZ54Auy_8pjson_rs11application8handlers16command_handlerss4_0ppEINtB9_21SessionCommandHandlerppEINtBb_14CommandHandlerNtNtBd_8commands21CompleteStreamCommanduE6handle00Bf_
FNDA:0,_RNCNCNvXININtNtNtCskc4teZ54Auy_8pjson_rs11application8handlers16command_handlerss5_0ppEINtB9_21SessionCommandHandlerppEINtBb_14CommandHandlerNtNtBd_8commands21GenerateFramesCommandINtNtCs7fnLZwG9eJV_5alloc3vec3VecNtNtNtNtBf_6domain8entities5frame5FrameEE6handle00Bf_
FNDA:0,_RNCNCNvXININtNtNtCskc4teZ54Auy_8pjson_rs11application8handlers16command_handlerss5_0ppEINtB9_21SessionCommandHandlerppEINtBb_14CommandHandlerNtNtBd_8commands21GenerateFramesCommandINtNtCs7fnLZwG9eJV_5alloc3vec3VecNtNtNtNtBf_6domain8entities5frame5FrameEE6handle0s_0Bf_
FNDA:0,_RNCNCNvXININtNtNtCskc4teZ54Auy_8pjson_rs11application8handlers16command_handlerss6_0ppEINtB9_21SessionCommandHandlerppEINtBb_14CommandHandlerNtNtBd_8commands26BatchGenerateFramesCommandINtNtCs7fnLZwG9eJV_5alloc3vec3VecNtNtNtNtBf_6domain8entities5frame5FrameEE6handle00Bf_
FNDA:0,_RNCNCNvXININtNtNtCskc4teZ54Auy_8pjson_rs11application8handlers16command_handlerss7_0ppEINtB9_21SessionCommandHandlerppEINtBb_14CommandHandlerNtNtBd_8commands19CloseSessionCommanduE6handle00Bf_
FNDA:0,_RNCNvXININtNtNtCskc4teZ54Auy_8pjson_rs11application8handlers16command_handlerss1_0ppEINtB7_21SessionCommandHandlerppEINtB9_14CommandHandlerNtNtBb_8commands20CreateSessionCommandNtNtNtNtBd_6domain13value_objects10session_id9SessionIdE6handle0Bd_
FNDA:0,_RNCNvXININtNtNtCskc4teZ54Auy_8pjson_rs11application8handlers16command_handlerss2_0ppEINtB7_21SessionCommandHandlerppEINtB9_14CommandHandlerNtNtBb_8commands19CreateStreamCommandNtNtNtNtBd_6domain13value_objects9stream_id8StreamIdE6handle0Bd_
FNDA:0,_RNCNvXININtNtNtCskc4teZ54Auy_8pjson_rs11application8handlers16command_handlerss3_0ppEINtB7_21SessionCommandHandlerppEINtB9_14CommandHandlerNtNtBb_8commands18StartStreamCommanduE6handle0Bd_
FNDA:0,_RNCNvXININtNtNtCskc4teZ54Auy_8pjson_rs11application8handlers16command_handlerss4_0ppEINtB7_21SessionCommandHandlerppEINtB9_14CommandHandlerNtNtBb_8commands21CompleteStreamCommanduE6handle0Bd_
FNDA:0,_RNCNvXININtNtNtCskc4teZ54Auy_8pjson_rs11application8handlers16command_handlerss5_0ppEINtB7_21SessionCommandHandlerppEINtB9_14CommandHandlerNtNtBb_8commands21GenerateFramesCommandINtNtCs7fnLZwG9eJV_5alloc3vec3VecNtNtNtNtBd_6domain8entities5frame5FrameEE6handle0Bd_
FNDA:0,_RNCNvXININtNtNtCskc4teZ54Auy_8pjson_rs11application8handlers16command_handlerss6_0ppEINtB7_21SessionCommandHandlerppEINtB9_14CommandHandlerNtNtBb_8commands26BatchGenerateFramesCommandINtNtCs7fnLZwG9eJV_5alloc3vec3VecNtNtNtNtBd_6domain8entities5frame5FrameEE6handle0Bd_
FNDA:0,_RNCNvXININtNtNtCskc4teZ54Auy_8pjson_rs11application8handlers16command_handlerss7_0ppEINtB7_21SessionCommandHandlerppEINtB9_14CommandHandlerNtNtBb_8commands19CloseSessionCommanduE6handle0Bd_
FNDA:0,_RNvMNtNtNtCskc4teZ54Auy_8pjson_rs11application8handlers16command_handlersINtB2_21SessionCommandHandlerppE3newB8_
FNDA:0,_RNvXININtNtNtCskc4teZ54Auy_8pjson_rs11application8handlers16command_handlerss1_0ppEINtB5_21SessionCommandHandlerppEINtB7_14CommandHandlerNtNtB9_8commands20CreateSessionCommandNtNtNtNtBb_6domain13value_objects10session_id9SessionIdE6handleBb_
FNDA:0,_RNvXININtNtNtCskc4teZ54Auy_8pjson_rs11application8handlers16command_handlerss2_0ppEINtB5_21SessionCommandHandlerppEINtB7_14CommandHandlerNtNtB9_8commands19CreateStreamCommandNtNtNtNtBb_6domain13value_objects9stream_id8StreamIdE6handleBb_
FNDA:0,_RNvXININtNtNtCskc4teZ54Auy_8pjson_rs11application8handlers16command_handlerss3_0ppEINtB5_21SessionCommandHandlerppEINtB7_14CommandHandlerNtNtB9_8commands18StartStreamCommanduE6handleBb_
FNDA:0,_RNvXININtNtNtCskc4teZ54Auy_8pjson_rs11application8handlers16command_handlerss4_0ppEINtB5_21SessionCommandHandlerppEINtB7_14CommandHandlerNtNtB9_8commands21CompleteStreamCommanduE6handleBb_
FNDA:0,_RNvXININtNtNtCskc4teZ54Auy_8pjson_rs11application8handlers16command_handlerss5_0ppEINtB5_21SessionCommandHandlerppEINtB7_14CommandHandlerNtNtB9_8commands21GenerateFramesCommandINtNtCs7fnLZwG9eJV_5alloc3vec3VecNtNtNtNtBb_6domain8entities5frame5FrameEE6handleBb_
FNDA:0,_RNvXININtNtNtCskc4teZ54Auy_8pjson_rs11application8handlers16command_handlerss6_0ppEINtB5_21SessionCommandHandlerppEINtB7_14CommandHandlerNtNtB9_8commands26BatchGenerateFramesCommandINtNtCs7fnLZwG9eJV_5alloc3vec3VecNtNtNtNtBb_6domain8entities5frame5FrameEE6handleBb_
FNDA:0,_RNvXININtNtNtCskc4teZ54Auy_8pjson_rs11application8handlers16command_handlerss7_0ppEINtB5_21SessionCommandHandlerppEINtB7_14CommandHandlerNtNtB9_8commands19CloseSessionCommanduE6handleBb_
FNF:15
FNH:0
DA:31,0
DA:32,0
DA:33,0
DA:34,0
DA:35,0
DA:36,0
DA:45,0
DA:47,0
DA:50,0
DA:51,0
DA:52,0
DA:53,0
DA:54,0
DA:57,0
DA:59,0
DA:62,0
DA:63,0
DA:64,0
DA:65,0
DA:68,0
DA:69,0
DA:70,0
DA:71,0
DA:72,0
DA:73,0
DA:76,0
DA:77,0
DA:86,0
DA:88,0
DA:89,0
DA:90,0
DA:91,0
DA:92,0
DA:93,0
DA:94,0
DA:95,0
DA:98,0
DA:99,0
DA:100,0
DA:103,0
DA:104,0
DA:105,0
DA:106,0
DA:107,0
DA:108,0
DA:109,0
DA:112,0
DA:113,0
DA:114,0
DA:115,0
DA:118,0
DA:119,0
DA:120,0
DA:121,0
DA:122,0
DA:123,0
DA:126,0
DA:127,0
DA:136,0
DA:138,0
DA:139,0
DA:140,0
DA:141,0
DA:142,0
DA:143,0
DA:144,0
DA:145,0
DA:148,0
DA:149,0
DA:150,0
DA:153,0
DA:154,0
DA:155,0
DA:156,0
DA:159,0
DA:160,0
DA:161,0
DA:162,0
DA:163,0
DA:164,0
DA:167,0
DA:168,0
DA:177,0
DA:179,0
DA:180,0
DA:181,0
DA:182,0
DA:183,0
DA:184,0
DA:185,0
DA:186,0
DA:189,0
DA:190,0
DA:191,0
DA:194,0
DA:195,0
DA:196,0
DA:197,0
DA:200,0
DA:201,0
DA:202,0
DA:203,0
DA:204,0
DA:205,0
DA:208,0
DA:209,0
DA:218,0
DA:220,0
DA:221,0
DA:222,0
DA:223,0
DA:224,0
DA:225,0
DA:226,0
DA:227,0
DA:230,0
DA:231,0
DA:232,0
DA:235,0
DA:236,0
DA:237,0
DA:240,0
DA:241,0
DA:242,0
DA:243,0
DA:246,0
DA:247,0
DA:248,0
DA:249,0
DA:250,0
DA:251,0
DA:254,0
DA:255,0
DA:264,0
DA:266,0
DA:267,0
DA:268,0
DA:269,0
DA:270,0
DA:271,0
DA:272,0
DA:273,0
DA:276,0
DA:277,0
DA:278,0
DA:281,0
DA:282,0
DA:283,0
DA:284,0
DA:287,0
DA:288,0
DA:289,0
DA:290,0
DA:291,0
DA:292,0
DA:295,0
DA:296,0
DA:305,0
DA:307,0
DA:308,0
DA:309,0
DA:310,0
DA:311,0
DA:312,0
DA:313,0
DA:314,0
DA:317,0
DA:320,0
DA:321,0
DA:322,0
DA:323,0
DA:326,0
DA:327,0
DA:328,0
DA:329,0
DA:330,0
DA:331,0
DA:334,0
DA:335,0
BRF:0
BRH:0
LF:193
LH:0
end_of_record
SF:/Users/a.gerasimchuk/Documents/git/pjs/crates/pjs-core/src/application/handlers/query_handlers.rs
FN:44,_RNCNCNvXININtNtNtCskc4teZ54Auy_8pjson_rs11application8handlers14query_handlerss4_0pEINtB9_19SessionQueryHandlerpEINtBb_12QueryHandlerNtNtBd_7queries15GetSessionQueryNtB29_15SessionResponseE6handle00Bf_
FN:97,_RNCNCNvXININtNtNtCskc4teZ54Auy_8pjson_rs11application8handlers14query_handlerss6_0pEINtB9_19SessionQueryHandlerpEINtBb_12QueryHandlerNtNtBd_7queries21GetSessionHealthQueryNtB29_14HealthResponseE6handle00Bf_
FN:123,_RNCNCNvXININtNtNtCskc4teZ54Auy_8pjson_rs11application8handlers14query_handlerss7_0pEINtB9_19SessionQueryHandlerpEINtBb_12QueryHandlerNtNtBd_7queries19SearchSessionsQueryNtB29_16SessionsResponseE6handle00Bf_
FN:133,_RNCNCNvXININtNtNtCskc4teZ54Auy_8pjson_rs11application8handlers14query_handlerss7_0pEINtB9_19SessionQueryHandlerpEINtBb_12QueryHandlerNtNtBd_7queries19SearchSessionsQueryNtB29_16SessionsResponseE6handle0s0_0Bf_
FN:131,_RNCNCNvXININtNtNtCskc4teZ54Auy_8pjson_rs11application8handlers14query_handlerss7_0pEINtB9_19SessionQueryHandlerpEINtBb_12QueryHandlerNtNtBd_7queries19SearchSessionsQueryNtB29_16SessionsResponseE6handle0s_0Bf_
FN:251,_RNCNCNvXININtNtNtCskc4teZ54Auy_8pjson_rs11application8handlers14query_handlerss9_0ppEINtB9_18StreamQueryHandlerppEINtBb_12QueryHandlerNtNtBd_7queries14GetStreamQueryNtB2a_14StreamResponseE6handle00Bf_
FN:257,_RNCNCNvXININtNtNtCskc4teZ54Auy_8pjson_rs11application8handlers14query_handlerss9_0ppEINtB9_18StreamQueryHandlerppEINtBb_12QueryHandlerNtNtBd_7queries14GetStreamQueryNtB2a_14StreamResponseE6handle0s_0Bf_
FN:278,_RNCNCNvXININtNtNtCskc4teZ54Auy_8pjson_rs11application8handlers14query_handlerssa_0ppEINtB9_18StreamQueryHandlerppEINtBb_12QueryHandlerNtNtBd_7queries25GetStreamsForSessionQueryNtB2a_15StreamsResponseE6handle00Bf_
FN:285,_RNCNCNvXININtNtNtCskc4teZ54Auy_8pjson_rs11application8handlers14query_handlerssa_0ppEINtB9_18StreamQueryHandlerppEINtBb_12QueryHandlerNtNtBd_7queries25GetStreamsForSessionQueryNtB2a_15StreamsResponseE6handle0s_0Bf_
FN:320,_RNCNCNvXININtNtNtCskc4teZ54Auy_8pjson_rs11application8handlers14query_handlerssc_0pEINtB9_17EventQueryHandlerpEINtBb_12QueryHandlerNtNtBd_7queries21GetSessionEventsQueryNtB27_14EventsResponseE6handle00Bf_
FN:329,_RNCNCNvXININtNtNtCskc4teZ54Auy_8pjson_rs11application8handlers14query_handlerssc_0pEINtB9_17EventQueryHandlerpEINtBb_12QueryHandlerNtNtBd_7queries21GetSessionEventsQueryNtB27_14EventsResponseE6handle0s0_0Bf_
FN:324,_RNCNCNvXININtNtNtCskc4teZ54Auy_8pjson_rs11application8handlers14query_handlerssc_0pEINtB9_17EventQueryHandlerpEINtBb_12QueryHandlerNtNtBd_7queries21GetSessionEventsQueryNtB27_14EventsResponseE6handle0s_0Bf_
FN:355,_RNCNCNvXININtNtNtCskc4teZ54Auy_8pjson_rs11application8handlers14query_handlerssd_0pEINtB9_17EventQueryHandlerpEINtBb_12QueryHandlerNtNtBd_7queries20GetStreamEventsQueryNtB27_14EventsResponseE6handle00Bf_
FN:359,_RNCNCNvXININtNtNtCskc4teZ54Auy_8pjson_rs11application8handlers14query_handlerssd_0pEINtB9_17EventQueryHandlerpEINtBb_12QueryHandlerNtNtBd_7queries20GetStreamEventsQueryNtB27_14EventsResponseE6handle0s_0Bf_
FN:407,_RNCNCNvXININtNtNtCskc4teZ54Auy_8pjson_rs11application8handlers14query_handlerssf_0pEINtB9_18SystemQueryHandlerpEINtBb_12QueryHandlerNtNtBd_7queries19GetSystemStatsQueryNtB28_19SystemStatsResponseE6handle00Bf_
FN:204,_RNCNvMs_NtNtNtCskc4teZ54Auy_8pjson_rs11application8handlers14query_handlersINtB6_19SessionQueryHandlerpE15matches_filters0Bc_
FN:38,_RNCNvXININtNtNtCskc4teZ54Auy_8pjson_rs11application8handlers14query_handlerss4_0pEINtB7_19SessionQueryHandlerpEINtB9_12QueryHandlerNtNtBb_7queries15GetSessionQueryNtB27_15SessionResponseE6handle0Bd_
FN:57,_RNCNvXININtNtNtCskc4teZ54Auy_8pjson_rs11application8handlers14query_handlerss5_0pEINtB7_19SessionQueryHandlerpEINtB9_12QueryHandlerNtNtBb_7queries22GetActiveSessionsQueryNtB27_16SessionsResponseE6handle0Bd_
FN:91,_RNCNvXININtNtNtCskc4teZ54Auy_8pjson_rs11application8handlers14query_handlerss6_0pEINtB7_19SessionQueryHandlerpEINtB9_12QueryHandlerNtNtBb_7queries21GetSessionHealthQueryNtB27_14HealthResponseE6handle0Bd_
FN:112,_RNCNvXININtNtNtCskc4teZ54Auy_8pjson_rs11application8handlers14query_handlerss7_0pEINtB7_19SessionQueryHandlerpEINtB9_12QueryHandlerNtNtBb_7queries19SearchSessionsQueryNtB27_16SessionsResponseE6handle0Bd_
FN:245,_RNCNvXININtNtNtCskc4teZ54Auy_8pjson_rs11application8handlers14query_handlerss9_0ppEINtB7_18StreamQueryHandlerppEINtB9_12QueryHandlerNtNtBb_7queries14GetStreamQueryNtB28_14StreamResponseE6handle0Bd_
FN:272,_RNCNvXININtNtNtCskc4teZ54Auy_8pjson_rs11application8handlers14query_handlerssa_0ppEINtB7_18StreamQueryHandlerppEINtB9_12QueryHandlerNtNtBb_7queries25GetStreamsForSessionQueryNtB28_15StreamsResponseE6handle0Bd_
FN:316,_RNCNvXININtNtNtCskc4teZ54Auy_8pjson_rs11application8handlers14query_handlerssc_0pEINtB7_17EventQueryHandlerpEINtB9_12QueryHandlerNtNtBb_7queries21GetSessionEventsQueryNtB25_14EventsResponseE6handle0Bd_
FN:351,_RNCNvXININtNtNtCskc4teZ54Auy_8pjson_rs11application8handlers14query_handlerssd_0pEINtB7_17EventQueryHandlerpEINtB9_12QueryHandlerNtNtBb_7queries20GetStreamEventsQueryNtB25_14EventsResponseE6handle0Bd_
FN:399,_RNCNvXININtNtNtCskc4teZ54Auy_8pjson_rs11application8handlers14query_handlerssf_0pEINtB7_18SystemQueryHandlerpEINtB9_12QueryHandlerNtNtBb_7queries19GetSystemStatsQueryNtB26_19SystemStatsResponseE6handle0Bd_
FN:28,_RNvMNtNtNtCskc4teZ54Auy_8pjson_rs11application8handlers14query_handlersINtB2_19SessionQueryHandlerpE3newB8_
FN:231,_RNvMs0_NtNtNtCskc4teZ54Auy_8pjson_rs11application8handlers14query_handlersINtB5_18StreamQueryHandlerppE3newBb_
FN:306,_RNvMs1_NtNtNtCskc4teZ54Auy_8pjson_rs11application8handlers14query_handlersINtB5_17EventQueryHandlerpE3newBb_
FN:389,_RNvMs2_NtNtNtCskc4teZ54Auy_8pjson_rs11application8handlers14query_handlersINtB5_18SystemQueryHandlerpE3newBb_
FN:173,_RNvMs_NtNtNtCskc4teZ54Auy_8pjson_rs11application8handlers14query_handlersINtB4_19SessionQueryHandlerpE15matches_filtersBa_
FN:38,_RNvXININtNtNtCskc4teZ54Auy_8pjson_rs11application8handlers14query_handlerss4_0pEINtB5_19SessionQueryHandlerpEINtB7_12QueryHandlerNtNtB9_7queries15GetSessionQueryNtB25_15SessionResponseE6handleBb_
FN:57,_RNvXININtNtNtCskc4teZ54Auy_8pjson_rs11application8handlers14query_handlerss5_0pEINtB5_19SessionQueryHandlerpEINtB7_12QueryHandlerNtNtB9_7queries22GetActiveSessionsQueryNtB25_16SessionsResponseE6handleBb_
FN:91,_RNvXININtNtNtCskc4teZ54Auy_8pjson_rs11application8handlers14query_handlerss6_0pEINtB5_19SessionQueryHandlerpEINtB7_12QueryHandlerNtNtB9_7queries21GetSessionHealthQueryNtB25_14HealthResponseE6handleBb_
FN:112,_RNvXININtNtNtCskc4teZ54Auy_8pjson_rs11application8handlers14query_handlerss7_0pEINtB5_19SessionQueryHandlerpEINtB7_12QueryHandlerNtNtB9_7queries19SearchSessionsQueryNtB25_16SessionsResponseE6handleBb_
FN:245,_RNvXININtNtNtCskc4teZ54Auy_8pjson_rs11application8handlers14query_handlerss9_0ppEINtB5_18StreamQueryHandlerppEINtB7_12QueryHandlerNtNtB9_7queries14GetStreamQueryNtB26_14StreamResponseE6handleBb_
FN:272,_RNvXININtNtNtCskc4teZ54Auy_8pjson_rs11application8handlers14query_handlerssa_0ppEINtB5_18StreamQueryHandlerppEINtB7_12QueryHandlerNtNtB9_7queries25GetStreamsForSessionQueryNtB26_15StreamsResponseE6handleBb_
FN:316,_RNvXININtNtNtCskc4teZ54Auy_8pjson_rs11application8handlers14query_handlerssc_0pEINtB5_17EventQueryHandlerpEINtB7_12QueryHandlerNtNtB9_7queries21GetSessionEventsQueryNtB23_14EventsResponseE6handleBb_
FN:351,_RNvXININtNtNtCskc4teZ54Auy_8pjson_rs11application8handlers14query_handlerssd_0pEINtB5_17EventQueryHandlerpEINtB7_12QueryHandlerNtNtB9_7queries20GetStreamEventsQueryNtB23_14EventsResponseE6handleBb_
FN:399,_RNvXININtNtNtCskc4teZ54Auy_8pjson_rs11application8handlers14query_handlerssf_0pEINtB5_18SystemQueryHandlerpEINtB7_12QueryHandlerNtNtB9_7queries19GetSystemStatsQueryNtB24_19SystemStatsResponseE6handleBb_
FNDA:0,_RNCNCNvXININtNtNtCskc4teZ54Auy_8pjson_rs11application8handlers14query_handlerss4_0pEINtB9_19SessionQueryHandlerpEINtBb_12QueryHandlerNtNtBd_7queries15GetSessionQueryNtB29_15SessionResponseE6handle00Bf_
FNDA:0,_RNCNCNvXININtNtNtCskc4teZ54Auy_8pjson_rs11application8handlers14query_handlerss6_0pEINtB9_19SessionQueryHandlerpEINtBb_12QueryHandlerNtNtBd_7queries21GetSessionHealthQueryNtB29_14HealthResponseE6handle00Bf_
FNDA:0,_RNCNCNvXININtNtNtCskc4teZ54Auy_8pjson_rs11application8handlers14query_handlerss7_0pEINtB9_19SessionQueryHandlerpEINtBb_12QueryHandlerNtNtBd_7queries19SearchSessionsQueryNtB29_16SessionsResponseE6handle00Bf_
FNDA:0,_RNCNCNvXININtNtNtCskc4teZ54Auy_8pjson_rs11application8handlers14query_handlerss7_0pEINtB9_19SessionQueryHandlerpEINtBb_12QueryHandlerNtNtBd_7queries19SearchSessionsQueryNtB29_16SessionsResponseE6handle0s0_0Bf_
FNDA:0,_RNCNCNvXININtNtNtCskc4teZ54Auy_8pjson_rs11application8handlers14query_handlerss7_0pEINtB9_19SessionQueryHandlerpEINtBb_12QueryHandlerNtNtBd_7queries19SearchSessionsQueryNtB29_16SessionsResponseE6handle0s_0Bf_
FNDA:0,_RNCNCNvXININtNtNtCskc4teZ54Auy_8pjson_rs11application8handlers14query_handlerss9_0ppEINtB9_18StreamQueryHandlerppEINtBb_12QueryHandlerNtNtBd_7queries14GetStreamQueryNtB2a_14StreamResponseE6handle00Bf_
FNDA:0,_RNCNCNvXININtNtNtCskc4teZ54Auy_8pjson_rs11application8handlers14query_handlerss9_0ppEINtB9_18StreamQueryHandlerppEINtBb_12QueryHandlerNtNtBd_7queries14GetStreamQueryNtB2a_14StreamResponseE6handle0s_0Bf_
FNDA:0,_RNCNCNvXININtNtNtCskc4teZ54Auy_8pjson_rs11application8handlers14query_handlerssa_0ppEINtB9_18StreamQueryHandlerppEINtBb_12QueryHandlerNtNtBd_7queries25GetStreamsForSessionQueryNtB2a_15StreamsResponseE6handle00Bf_
FNDA:0,_RNCNCNvXININtNtNtCskc4teZ54Auy_8pjson_rs11application8handlers14query_handlerssa_0ppEINtB9_18StreamQueryHandlerppEINtBb_12QueryHandlerNtNtBd_7queries25GetStreamsForSessionQueryNtB2a_15StreamsResponseE6handle0s_0Bf_
FNDA:0,_RNCNCNvXININtNtNtCskc4teZ54Auy_8pjson_rs11application8handlers14query_handlerssc_0pEINtB9_17EventQueryHandlerpEINtBb_12QueryHandlerNtNtBd_7queries21GetSessionEventsQueryNtB27_14EventsResponseE6handle00Bf_
FNDA:0,_RNCNCNvXININtNtNtCskc4teZ54Auy_8pjson_rs11application8handlers14query_handlerssc_0pEINtB9_17EventQueryHandlerpEINtBb_12QueryHandlerNtNtBd_7queries21GetSessionEventsQueryNtB27_14EventsResponseE6handle0s0_0Bf_
FNDA:0,_RNCNCNvXININtNtNtCskc4teZ54Auy_8pjson_rs11application8handlers14query_handlerssc_0pEINtB9_17EventQueryHandlerpEINtBb_12QueryHandlerNtNtBd_7queries21GetSessionEventsQueryNtB27_14EventsResponseE6handle0s_0Bf_
FNDA:0,_RNCNCNvXININtNtNtCskc4teZ54Auy_8pjson_rs11application8handlers14query_handlerssd_0pEINtB9_17EventQueryHandlerpEINtBb_12QueryHandlerNtNtBd_7queries20GetStreamEventsQueryNtB27_14EventsResponseE6handle00Bf_
FNDA:0,_RNCNCNvXININtNtNtCskc4teZ54Auy_8pjson_rs11application8handlers14query_handlerssd_0pEINtB9_17EventQueryHandlerpEINtBb_12QueryHandlerNtNtBd_7queries20GetStreamEventsQueryNtB27_14EventsResponseE6handle0s_0Bf_
FNDA:0,_RNCNCNvXININtNtNtCskc4teZ54Auy_8pjson_rs11application8handlers14query_handlerssf_0pEINtB9_18SystemQueryHandlerpEINtBb_12QueryHandlerNtNtBd_7queries19GetSystemStatsQueryNtB28_19SystemStatsResponseE6handle00Bf_
FNDA:0,_RNCNvMs_NtNtNtCskc4teZ54Auy_8pjson_rs11application8handlers14query_handlersINtB6_19SessionQueryHandlerpE15matches_filters0Bc_
FNDA:0,_RNCNvXININtNtNtCskc4teZ54Auy_8pjson_rs11application8handlers14query_handlerss4_0pEINtB7_19SessionQueryHandlerpEINtB9_12QueryHandlerNtNtBb_7queries15GetSessionQueryNtB27_15SessionResponseE6handle0Bd_
FNDA:0,_RNCNvXININtNtNtCskc4teZ54Auy_8pjson_rs11application8handlers14query_handlerss5_0pEINtB7_19SessionQueryHandlerpEINtB9_12QueryHandlerNtNtBb_7queries22GetActiveSessionsQueryNtB27_16SessionsResponseE6handle0Bd_
FNDA:0,_RNCNvXININtNtNtCskc4teZ54Auy_8pjson_rs11application8handlers14query_handlerss6_0pEINtB7_19SessionQueryHandlerpEINtB9_12QueryHandlerNtNtBb_7queries21GetSessionHealthQueryNtB27_14HealthResponseE6handle0Bd_
FNDA:0,_RNCNvXININtNtNtCskc4teZ54Auy_8pjson_rs11application8handlers14query_handlerss7_0pEINtB7_19SessionQueryHandlerpEINtB9_12QueryHandlerNtNtBb_7queries19SearchSessionsQueryNtB27_16SessionsResponseE6handle0Bd_
FNDA:0,_RNCNvXININtNtNtCskc4teZ54Auy_8pjson_rs11application8handlers14query_handlerss9_0ppEINtB7_18StreamQueryHandlerppEINtB9_12QueryHandlerNtNtBb_7queries14GetStreamQueryNtB28_14StreamResponseE6handle0Bd_
FNDA:0,_RNCNvXININtNtNtCskc4teZ54Auy_8pjson_rs11application8handlers14query_handlerssa_0ppEINtB7_18StreamQueryHandlerppEINtB9_12QueryHandlerNtNtBb_7queries25GetStreamsForSessionQueryNtB28_15StreamsResponseE6handle0Bd_
FNDA:0,_RNCNvXININtNtNtCskc4teZ54Auy_8pjson_rs11application8handlers14query_handlerssc_0pEINtB7_17EventQueryHandlerpEINtB9_12QueryHandlerNtNtBb_7queries21GetSessionEventsQueryNtB25_14EventsResponseE6handle0Bd_
FNDA:0,_RNCNvXININtNtNtCskc4teZ54Auy_8pjson_rs11application8handlers14query_handlerssd_0pEINtB7_17EventQueryHandlerpEINtB9_12QueryHandlerNtNtBb_7queries20GetStreamEventsQueryNtB25_14EventsResponseE6handle0Bd_
FNDA:0,_RNCNvXININtNtNtCskc4teZ54Auy_8pjson_rs11application8handlers14query_handlerssf_0pEINtB7_18SystemQueryHandlerpEINtB9_12QueryHandlerNtNtBb_7queries19GetSystemStatsQueryNtB26_19SystemStatsResponseE6handle0Bd_
FNDA:0,_RNvMNtNtNtCskc4teZ54Auy_8pjson_rs11application8handlers14query_handlersINtB2_19SessionQueryHandlerpE3newB8_
FNDA:0,_RNvMs0_NtNtNtCskc4teZ54Auy_8pjson_rs11application8handlers14query_handlersINtB5_18StreamQueryHandlerppE3newBb_
FNDA:0,_RNvMs1_NtNtNtCskc4teZ54Auy_8pjson_rs11application8handlers14query_handlersINtB5_17EventQueryHandlerpE3newBb_
FNDA:0,_RNvMs2_NtNtNtCskc4teZ54Auy_8pjson_rs11application8handlers14query_handlersINtB5_18SystemQueryHandlerpE3newBb_
FNDA:0,_RNvMs_NtNtNtCskc4teZ54Auy_8pjson_rs11application8handlers14query_handlersINtB4_19SessionQueryHandlerpE15matches_filtersBa_
FNDA:0,_RNvXININtNtNtCskc4teZ54Auy_8pjson_rs11application8handlers14query_handlerss4_0pEINtB5_19SessionQueryHandlerpEINtB7_12QueryHandlerNtNtB9_7queries15GetSessionQueryNtB25_15SessionResponseE6handleBb_
FNDA:0,_RNvXININtNtNtCskc4teZ54Auy_8pjson_rs11application8handlers14query_handlerss5_0pEINtB5_19SessionQueryHandlerpEINtB7_12QueryHandlerNtNtB9_7queries22GetActiveSessionsQueryNtB25_16SessionsResponseE6handleBb_
FNDA:0,_RNvXININtNtNtCskc4teZ54Auy_8pjson_rs11application8handlers14query_handlerss6_0pEINtB5_19SessionQueryHandlerpEINtB7_12QueryHandlerNtNtB9_7queries21GetSessionHealthQueryNtB25_14HealthResponseE6handleBb_
FNDA:0,_RNvXININtNtNtCskc4teZ54Auy_8pjson_rs11application8handlers14query_handlerss7_0pEINtB5_19SessionQueryHandlerpEINtB7_12QueryHandlerNtNtB9_7queries19SearchSessionsQueryNtB25_16SessionsResponseE6handleBb_
FNDA:0,_RNvXININtNtNtCskc4teZ54Auy_8pjson_rs11application8handlers14query_handlerss9_0ppEINtB5_18StreamQueryHandlerppEINtB7_12QueryHandlerNtNtB9_7queries14GetStreamQueryNtB26_14StreamResponseE6handleBb_
FNDA:0,_RNvXININtNtNtCskc4teZ54Auy_8pjson_rs11application8handlers14query_handlerssa_0ppEINtB5_18StreamQueryHandlerppEINtB7_12QueryHandlerNtNtB9_7queries25GetStreamsForSessionQueryNtB26_15StreamsResponseE6handleBb_
FNDA:0,_RNvXININtNtNtCskc4teZ54Auy_8pjson_rs11application8handlers14query_handlerssc_0pEINtB5_17EventQueryHandlerpEINtB7_12QueryHandlerNtNtB9_7queries21GetSessionEventsQueryNtB23_14EventsResponseE6handleBb_
FNDA:0,_RNvXININtNtNtCskc4teZ54Auy_8pjson_rs11application8handlers14query_handlerssd_0pEINtB5_17EventQueryHandlerpEINtB7_12QueryHandlerNtNtB9_7queries20GetStreamEventsQueryNtB23_14EventsResponseE6handleBb_
FNDA:0,_RNvXININtNtNtCskc4teZ54Auy_8pjson_rs11application8handlers14query_handlerssf_0pEINtB5_18SystemQueryHandlerpEINtB7_12QueryHandlerNtNtB9_7queries19GetSystemStatsQueryNtB24_19SystemStatsResponseE6handleBb_
FNF:30
FNH:0
DA:28,0
DA:29,0
DA:30,0
DA:38,0
DA:39,0
DA:40,0
DA:41,0
DA:42,0
DA:43,0
DA:44,0
DA:45,0
DA:46,0
DA:48,0
DA:49,0
DA:57,0
DA:58,0
DA:59,0
DA:60,0
DA:61,0
DA:62,0
DA:65,0
DA:67,0
DA:68,0
DA:69,0
DA:70,0
DA:71,0
DA:72,0
DA:73,0
DA:75,0
DA:76,0
DA:77,0
DA:79,0
DA:80,0
DA:81,0
DA:82,0
DA:83,0
DA:91,0
DA:92,0
DA:93,0
DA:94,0
DA:95,0
DA:96,0
DA:97,0
DA:98,0
DA:99,0
DA:101,0
DA:103,0
DA:104,0
DA:112,0
DA:114,0
DA:115,0
DA:116,0
DA:117,0
DA:118,0
DA:121,0
DA:122,0
DA:123,0
DA:124,0
DA:127,0
DA:128,0
DA:129,0
DA:130,0
DA:131,0
DA:133,0
DA:134,0
DA:135,0
DA:136,0
DA:137,0
DA:139,0
DA:143,0
DA:144,0
DA:145,0
DA:148,0
DA:150,0
DA:151,0
DA:152,0
DA:153,0
DA:154,0
DA:155,0
DA:156,0
DA:158,0
DA:159,0
DA:160,0
DA:162,0
DA:163,0
DA:164,0
DA:165,0
DA:166,0
DA:173,0
DA:175,0
DA:176,0
DA:177,0
DA:178,0
DA:179,0
DA:180,0
DA:183,0
DA:184,0
DA:185,0
DA:186,0
DA:187,0
DA:189,0
DA:190,0
DA:191,0
DA:192,0
DA:193,0
DA:196,0
DA:197,0
DA:198,0
DA:199,0
DA:200,0
DA:203,0
DA:204,0
DA:205,0
DA:206,0
DA:207,0
DA:208,0
DA:210,0
DA:211,0
DA:231,0
DA:232,0
DA:233,0
DA:234,0
DA:235,0
DA:236,0
DA:245,0
DA:246,0
DA:247,0
DA:248,0
DA:249,0
DA:250,0
DA:251,0
DA:252,0
DA:253,0
DA:255,0
DA:256,0
DA:257,0
DA:258,0
DA:259,0
DA:260,0
DA:262,0
DA:263,0
DA:272,0
DA:273,0
DA:274,0
DA:275,0
DA:276,0
DA:277,0
DA:278,0
DA:279,0
DA:280,0
DA:282,0
DA:283,0
DA:284,0
DA:285,0
DA:286,0
DA:287,0
DA:289,0
DA:290,0
DA:306,0
DA:307,0
DA:308,0
DA:316,0
DA:317,0
DA:318,0
DA:319,0
DA:320,0
DA:323,0
DA:324,0
DA:325,0
DA:328,0
DA:329,0
DA:330,0
DA:332,0
DA:335,0
DA:336,0
DA:337,0
DA:339,0
DA:340,0
DA:341,0
DA:342,0
DA:343,0
DA:351,0
DA:352,0
DA:353,0
DA:354,0
DA:355,0
DA:358,0
DA:359,0
DA:360,0
DA:362,0
DA:365,0
DA:366,0
DA:367,0
DA:369,0
DA:370,0
DA:371,0
DA:372,0
DA:373,0
DA:389,0
DA:390,0
DA:391,0
DA:399,0
DA:400,0
DA:401,0
DA:402,0
DA:403,0
DA:404,0
DA:406,0
DA:407,0
DA:409,0
DA:410,0
DA:411,0
DA:412,0
DA:413,0
DA:414,0
DA:416,0
DA:417,0
DA:418,0
DA:419,0
DA:420,0
DA:421,0
DA:423,0
DA:424,0
DA:425,0
DA:426,0
DA:429,0
DA:430,0
DA:432,0
DA:436,0
DA:437,0
DA:438,0
DA:440,0
DA:441,0
DA:442,0
DA:443,0
DA:444,0
DA:445,0
DA:446,0
DA:447,0
DA:448,0
DA:449,0
DA:450,0
DA:451,0
DA:452,0
BRF:0
BRH:0
LF:265
LH:0
end_of_record
SF:/Users/a.gerasimchuk/Documents/git/pjs/crates/pjs-core/src/application/services/session_service.rs
FN:215,_RNCNCNvMNtNtNtCskc4teZ54Auy_8pjson_rs11application8services15session_serviceINtB6_14SessionServiceppE25graceful_shutdown_session00Bc_
FN:144,_RNCNCNvMNtNtNtCskc4teZ54Auy_8pjson_rs11application8services15session_serviceINtB6_14SessionServiceppE39complete_stream_and_maybe_close_session00Bc_
FN:167,_RNCNvMNtNtNtCskc4teZ54Auy_8pjson_rs11application8services15session_serviceINtB4_14SessionServiceppE21get_sessions_overview0Ba_
FN:81,_RNCNvMNtNtNtCskc4teZ54Auy_8pjson_rs11application8services15session_serviceINtB4_14SessionServiceppE23create_and_start_stream0Ba_
FN:106,_RNCNvMNtNtNtCskc4teZ54Auy_8pjson_rs11application8services15session_serviceINtB4_14SessionServiceppE23get_session_with_health0Ba_
FN:206,_RNCNvMNtNtNtCskc4teZ54Auy_8pjson_rs11application8services15session_serviceINtB4_14SessionServiceppE25graceful_shutdown_session0Ba_
FN:63,_RNCNvMNtNtNtCskc4teZ54Auy_8pjson_rs11application8services15session_serviceINtB4_14SessionServiceppE27create_and_activate_session0Ba_
FN:126,_RNCNvMNtNtNtCskc4teZ54Auy_8pjson_rs11application8services15session_serviceINtB4_14SessionServiceppE39complete_stream_and_maybe_close_session0Ba_
FN:164,_RNvMNtNtNtCskc4teZ54Auy_8pjson_rs11application8services15session_serviceINtB2_14SessionServiceppE21get_sessions_overviewB8_
FN:76,_RNvMNtNtNtCskc4teZ54Auy_8pjson_rs11application8services15session_serviceINtB2_14SessionServiceppE23create_and_start_streamB8_
FN:103,_RNvMNtNtNtCskc4teZ54Auy_8pjson_rs11application8services15session_serviceINtB2_14SessionServiceppE23get_session_with_healthB8_
FN:203,_RNvMNtNtNtCskc4teZ54Auy_8pjson_rs11application8services15session_serviceINtB2_14SessionServiceppE25graceful_shutdown_sessionB8_
FN:57,_RNvMNtNtNtCskc4teZ54Auy_8pjson_rs11application8services15session_serviceINtB2_14SessionServiceppE27create_and_activate_sessionB8_
FN:122,_RNvMNtNtNtCskc4teZ54Auy_8pjson_rs11application8services15session_serviceINtB2_14SessionServiceppE39complete_stream_and_maybe_close_sessionB8_
FN:49,_RNvMNtNtNtCskc4teZ54Auy_8pjson_rs11application8services15session_serviceINtB2_14SessionServiceppE3newB8_
FNDA:0,_RNCNCNvMNtNtNtCskc4teZ54Auy_8pjson_rs11application8services15session_serviceINtB6_14SessionServiceppE25graceful_shutdown_session00Bc_
FNDA:0,_RNCNCNvMNtNtNtCskc4teZ54Auy_8pjson_rs11application8services15session_serviceINtB6_14SessionServiceppE39complete_stream_and_maybe_close_session00Bc_
FNDA:0,_RNCNvMNtNtNtCskc4teZ54Auy_8pjson_rs11application8services15session_serviceINtB4_14SessionServiceppE21get_sessions_overview0Ba_
FNDA:0,_RNCNvMNtNtNtCskc4teZ54Auy_8pjson_rs11application8services15session_serviceINtB4_14SessionServiceppE23create_and_start_stream0Ba_
FNDA:0,_RNCNvMNtNtNtCskc4teZ54Auy_8pjson_rs11application8services15session_serviceINtB4_14SessionServiceppE23get_session_with_health0Ba_
FNDA:0,_RNCNvMNtNtNtCskc4teZ54Auy_8pjson_rs11application8services15session_serviceINtB4_14SessionServiceppE25graceful_shutdown_session0Ba_
FNDA:0,_RNCNvMNtNtNtCskc4teZ54Auy_8pjson_rs11application8services15session_serviceINtB4_14SessionServiceppE27create_and_activate_session0Ba_
FNDA:0,_RNCNvMNtNtNtCskc4teZ54Auy_8pjson_rs11application8services15session_serviceINtB4_14SessionServiceppE39complete_stream_and_maybe_close_session0Ba_
FNDA:0,_RNvMNtNtNtCskc4teZ54Auy_8pjson_rs11application8services15session_serviceINtB2_14SessionServiceppE21get_sessions_overviewB8_
FNDA:0,_RNvMNtNtNtCskc4teZ54Auy_8pjson_rs11application8services15session_serviceINtB2_14SessionServiceppE23create_and_start_streamB8_
FNDA:0,_RNvMNtNtNtCskc4teZ54Auy_8pjson_rs11application8services15session_serviceINtB2_14SessionServiceppE23get_session_with_healthB8_
FNDA:0,_RNvMNtNtNtCskc4teZ54Auy_8pjson_rs11application8services15session_serviceINtB2_14SessionServiceppE25graceful_shutdown_sessionB8_
FNDA:0,_RNvMNtNtNtCskc4teZ54Auy_8pjson_rs11application8services15session_serviceINtB2_14SessionServiceppE27create_and_activate_sessionB8_
FNDA:0,_RNvMNtNtNtCskc4teZ54Auy_8pjson_rs11application8services15session_serviceINtB2_14SessionServiceppE39complete_stream_and_maybe_close_sessionB8_
FNDA:0,_RNvMNtNtNtCskc4teZ54Auy_8pjson_rs11application8services15session_serviceINtB2_14SessionServiceppE3newB8_
FNF:15
FNH:0
DA:49,0
DA:50,0
DA:51,0
DA:52,0
DA:53,0
DA:54,0
DA:57,0
DA:58,0
DA:59,0
DA:60,0
DA:61,0
DA:62,0
DA:63,0
DA:64,0
DA:65,0
DA:66,0
DA:67,0
DA:68,0
DA:69,0
DA:72,0
DA:73,0
DA:76,0
DA:77,0
DA:78,0
DA:79,0
DA:80,0
DA:81,0
DA:83,0
DA:84,0
DA:85,0
DA:86,0
DA:87,0
DA:89,0
DA:92,0
DA:93,0
DA:94,0
DA:95,0
DA:97,0
DA:99,0
DA:100,0
DA:103,0
DA:104,0
DA:105,0
DA:106,0
DA:108,0
DA:109,0
DA:112,0
DA:113,0
DA:115,0
DA:116,0
DA:117,0
DA:118,0
DA:119,0
DA:122,0
DA:123,0
DA:124,0
DA:125,0
DA:126,0
DA:128,0
DA:129,0
DA:130,0
DA:131,0
DA:132,0
DA:134,0
DA:137,0
DA:138,0
DA:140,0
DA:141,0
DA:142,0
DA:143,0
DA:144,0
DA:145,0
DA:147,0
DA:149,0
DA:150,0
DA:151,0
DA:153,0
DA:156,0
DA:157,0
DA:158,0
DA:159,0
DA:160,0
DA:161,0
DA:164,0
DA:165,0
DA:166,0
DA:167,0
DA:168,0
DA:169,0
DA:170,0
DA:171,0
DA:173,0
DA:176,0
DA:177,0
DA:178,0
DA:179,0
DA:181,0
DA:182,0
DA:183,0
DA:184,0
DA:185,0
DA:187,0
DA:188,0
DA:189,0
DA:192,0
DA:193,0
DA:194,0
DA:195,0
DA:196,0
DA:197,0
DA:198,0
DA:199,0
DA:200,0
DA:203,0
DA:204,0
DA:205,0
DA:206,0
DA:208,0
DA:209,0
DA:211,0
DA:212,0
DA:213,0
DA:214,0
DA:215,0
DA:216,0
DA:217,0
DA:220,0
DA:221,0
DA:223,0
DA:224,0
DA:225,0
DA:226,0
DA:227,0
DA:228,0
DA:230,0
DA:231,0
DA:232,0
DA:237,0
DA:238,0
DA:240,0
DA:241,0
DA:242,0
DA:243,0
DA:244,0
DA:245,0
DA:246,0
BRF:0
BRH:0
LF:154
LH:0
end_of_record
SF:/Users/a.gerasimchuk/Documents/git/pjs/crates/pjs-core/src/application/services/streaming_service.rs
FN:163,_RNCNvMNtNtNtCskc4teZ54Auy_8pjson_rs11application8services17streaming_serviceINtB4_16StreamingServicepE21optimize_for_use_case0Ba_
FN:113,_RNCNvMNtNtNtCskc4teZ54Auy_8pjson_rs11application8services17streaming_serviceINtB4_16StreamingServicepE22auto_adjust_priorities0Ba_
FN:47,_RNCNvMNtNtNtCskc4teZ54Auy_8pjson_rs11application8services17streaming_serviceINtB4_16StreamingServicepE24generate_adaptive_frames0Ba_
FN:340,_RNCNvMNtNtNtCskc4teZ54Auy_8pjson_rs11application8services17streaming_serviceINtB4_16StreamingServicepE30calculate_optimization_metrics0Ba_
FN:343,_RNCNvMNtNtNtCskc4teZ54Auy_8pjson_rs11application8services17streaming_serviceINtB4_16StreamingServicepE30calculate_optimization_metricss_0Ba_
FN:77,_RNCNvMNtNtNtCskc4teZ54Auy_8pjson_rs11application8services17streaming_serviceINtB4_16StreamingServicepE38generate_cross_stream_optimized_frames0Ba_
FN:281,_RNvMNtNtNtCskc4teZ54Auy_8pjson_rs11application8services17streaming_serviceINtB2_16StreamingServicepE21get_adaptation_reasonB8_
FN:159,_RNvMNtNtNtCskc4teZ54Auy_8pjson_rs11application8services17streaming_serviceINtB2_16StreamingServicepE21optimize_for_use_caseB8_
FN:109,_RNvMNtNtNtCskc4teZ54Auy_8pjson_rs11application8services17streaming_serviceINtB2_16StreamingServicepE22auto_adjust_prioritiesB8_
FN:42,_RNvMNtNtNtCskc4teZ54Auy_8pjson_rs11application8services17streaming_serviceINtB2_16StreamingServicepE24generate_adaptive_framesB8_
FN:308,_RNvMNtNtNtCskc4teZ54Auy_8pjson_rs11application8services17streaming_serviceINtB2_16StreamingServicepE26analyze_frame_distributionB8_
FN:360,_RNvMNtNtNtCskc4teZ54Auy_8pjson_rs11application8services17streaming_serviceINtB2_16StreamingServicepE26analyze_latency_adjustmentB8_
FN:216,_RNvMNtNtNtCskc4teZ54Auy_8pjson_rs11application8services17streaming_serviceINtB2_16StreamingServicepE27calculate_adaptive_priorityB8_
FN:242,_RNvMNtNtNtCskc4teZ54Auy_8pjson_rs11application8services17streaming_serviceINtB2_16StreamingServicepE28calculate_optimal_batch_sizeB8_
FN:275,_RNvMNtNtNtCskc4teZ54Auy_8pjson_rs11application8services17streaming_serviceINtB2_16StreamingServicepE28calculate_total_frame_budgetB8_
FN:395,_RNvMNtNtNtCskc4teZ54Auy_8pjson_rs11application8services17streaming_serviceINtB2_16StreamingServicepE29analyze_error_rate_adjustmentB8_
FN:379,_RNvMNtNtNtCskc4teZ54Auy_8pjson_rs11application8services17streaming_serviceINtB2_16StreamingServicepE29analyze_throughput_adjustmentB8_
FN:335,_RNvMNtNtNtCskc4teZ54Auy_8pjson_rs11application8services17streaming_serviceINtB2_16StreamingServicepE30calculate_optimization_metricsB8_
FN:268,_RNvMNtNtNtCskc4teZ54Auy_8pjson_rs11application8services17streaming_serviceINtB2_16StreamingServicepE35calculate_global_priority_thresholdB8_
FN:73,_RNvMNtNtNtCskc4teZ54Auy_8pjson_rs11application8services17streaming_serviceINtB2_16StreamingServicepE38generate_cross_stream_optimized_framesB8_
FN:34,_RNvMNtNtNtCskc4teZ54Auy_8pjson_rs11application8services17streaming_serviceINtB2_16StreamingServicepE3newB8_
FNDA:0,_RNCNvMNtNtNtCskc4teZ54Auy_8pjson_rs11application8services17streaming_serviceINtB4_16StreamingServicepE21optimize_for_use_case0Ba_
FNDA:0,_RNCNvMNtNtNtCskc4teZ54Auy_8pjson_rs11application8services17streaming_serviceINtB4_16StreamingServicepE22auto_adjust_priorities0Ba_
FNDA:0,_RNCNvMNtNtNtCskc4teZ54Auy_8pjson_rs11application8services17streaming_serviceINtB4_16StreamingServicepE24generate_adaptive_frames0Ba_
FNDA:0,_RNCNvMNtNtNtCskc4teZ54Auy_8pjson_rs11application8services17streaming_serviceINtB4_16StreamingServicepE30calculate_optimization_metrics0Ba_
FNDA:0,_RNCNvMNtNtNtCskc4teZ54Auy_8pjson_rs11application8services17streaming_serviceINtB4_16StreamingServicepE30calculate_optimization_metricss_0Ba_
FNDA:0,_RNCNvMNtNtNtCskc4teZ54Auy_8pjson_rs11application8services17streaming_serviceINtB4_16StreamingServicepE38generate_cross_stream_optimized_frames0Ba_
FNDA:0,_RNvMNtNtNtCskc4teZ54Auy_8pjson_rs11application8services17streaming_serviceINtB2_16StreamingServicepE21get_adaptation_reasonB8_
FNDA:0,_RNvMNtNtNtCskc4teZ54Auy_8pjson_rs11application8services17streaming_serviceINtB2_16StreamingServicepE21optimize_for_use_caseB8_
FNDA:0,_RNvMNtNtNtCskc4teZ54Auy_8pjson_rs11application8services17streaming_serviceINtB2_16StreamingServicepE22auto_adjust_prioritiesB8_
FNDA:0,_RNvMNtNtNtCskc4teZ54Auy_8pjson_rs11application8services17streaming_serviceINtB2_16StreamingServicepE24generate_adaptive_framesB8_
FNDA:0,_RNvMNtNtNtCskc4teZ54Auy_8pjson_rs11application8services17streaming_serviceINtB2_16StreamingServicepE26analyze_frame_distributionB8_
FNDA:0,_RNvMNtNtNtCskc4teZ54Auy_8pjson_rs11application8services17streaming_serviceINtB2_16StreamingServicepE26analyze_latency_adjustmentB8_
FNDA:0,_RNvMNtNtNtCskc4teZ54Auy_8pjson_rs11application8services17streaming_serviceINtB2_16StreamingServicepE27calculate_adaptive_priorityB8_
FNDA:0,_RNvMNtNtNtCskc4teZ54Auy_8pjson_rs11application8services17streaming_serviceINtB2_16StreamingServicepE28calculate_optimal_batch_sizeB8_
FNDA:0,_RNvMNtNtNtCskc4teZ54Auy_8pjson_rs11application8services17streaming_serviceINtB2_16StreamingServicepE28calculate_total_frame_budgetB8_
FNDA:0,_RNvMNtNtNtCskc4teZ54Auy_8pjson_rs11application8services17streaming_serviceINtB2_16StreamingServicepE29analyze_error_rate_adjustmentB8_
FNDA:0,_RNvMNtNtNtCskc4teZ54Auy_8pjson_rs11application8services17streaming_serviceINtB2_16StreamingServicepE29analyze_throughput_adjustmentB8_
FNDA:0,_RNvMNtNtNtCskc4teZ54Auy_8pjson_rs11application8services17streaming_serviceINtB2_16StreamingServicepE30calculate_optimization_metricsB8_
FNDA:0,_RNvMNtNtNtCskc4teZ54Auy_8pjson_rs11application8services17streaming_serviceINtB2_16StreamingServicepE35calculate_global_priority_thresholdB8_
FNDA:0,_RNvMNtNtNtCskc4teZ54Auy_8pjson_rs11application8services17streaming_serviceINtB2_16StreamingServicepE38generate_cross_stream_optimized_framesB8_
FNDA:0,_RNvMNtNtNtCskc4teZ54Auy_8pjson_rs11application8services17streaming_serviceINtB2_16StreamingServicepE3newB8_
FNF:21
FNH:0
DA:34,0
DA:35,0
DA:36,0
DA:37,0
DA:38,0
DA:39,0
DA:42,0
DA:43,0
DA:44,0
DA:45,0
DA:46,0
DA:47,0
DA:49,0
DA:52,0
DA:55,0
DA:56,0
DA:57,0
DA:58,0
DA:59,0
DA:60,0
DA:62,0
DA:64,0
DA:65,0
DA:66,0
DA:67,0
DA:68,0
DA:69,0
DA:70,0
DA:73,0
DA:74,0
DA:75,0
DA:76,0
DA:77,0
DA:79,0
DA:82,0
DA:85,0
DA:86,0
DA:87,0
DA:88,0
DA:89,0
DA:91,0
DA:94,0
DA:96,0
DA:97,0
DA:99,0
DA:100,0
DA:101,0
DA:102,0
DA:103,0
DA:104,0
DA:105,0
DA:106,0
DA:109,0
DA:110,0
DA:111,0
DA:112,0
DA:113,0
DA:114,0
DA:117,0
DA:118,0
DA:119,0
DA:120,0
DA:121,0
DA:122,0
DA:124,0
DA:125,0
DA:126,0
DA:129,0
DA:130,0
DA:131,0
DA:132,0
DA:133,0
DA:134,0
DA:136,0
DA:137,0
DA:138,0
DA:141,0
DA:142,0
DA:143,0
DA:144,0
DA:145,0
DA:146,0
DA:148,0
DA:149,0
DA:150,0
DA:152,0
DA:153,0
DA:154,0
DA:155,0
DA:156,0
DA:159,0
DA:160,0
DA:161,0
DA:162,0
DA:163,0
DA:164,0
DA:166,0
DA:167,0
DA:168,0
DA:169,0
DA:170,0
DA:171,0
DA:174,0
DA:175,0
DA:176,0
DA:177,0
DA:178,0
DA:179,0
DA:182,0
DA:183,0
DA:184,0
DA:185,0
DA:186,0
DA:187,0
DA:190,0
DA:191,0
DA:192,0
DA:193,0
DA:194,0
DA:195,0
DA:200,0
DA:201,0
DA:202,0
DA:203,0
DA:204,0
DA:206,0
DA:208,0
DA:209,0
DA:210,0
DA:211,0
DA:212,0
DA:213,0
DA:216,0
DA:217,0
DA:220,0
DA:221,0
DA:222,0
DA:223,0
DA:224,0
DA:227,0
DA:228,0
DA:229,0
DA:230,0
DA:231,0
DA:234,0
DA:235,0
DA:236,0
DA:238,0
DA:239,0
DA:242,0
DA:243,0
DA:246,0
DA:247,0
DA:248,0
DA:249,0
DA:251,0
DA:255,0
DA:258,0
DA:259,0
DA:261,0
DA:264,0
DA:265,0
DA:268,0
DA:270,0
DA:271,0
DA:272,0
DA:275,0
DA:276,0
DA:277,0
DA:278,0
DA:281,0
DA:282,0
DA:284,0
DA:285,0
DA:286,0
DA:288,0
DA:289,0
DA:290,0
DA:292,0
DA:293,0
DA:294,0
DA:296,0
DA:297,0
DA:298,0
DA:300,0
DA:301,0
DA:303,0
DA:305,0
DA:308,0
DA:309,0
DA:310,0
DA:311,0
DA:312,0
DA:313,0
DA:315,0
DA:316,0
DA:317,0
DA:318,0
DA:319,0
DA:320,0
DA:321,0
DA:325,0
DA:326,0
DA:327,0
DA:328,0
DA:329,0
DA:330,0
DA:331,0
DA:332,0
DA:335,0
DA:336,0
DA:337,0
DA:338,0
DA:339,0
DA:340,0
DA:341,0
DA:342,0
DA:343,0
DA:344,0
DA:345,0
DA:347,0
DA:348,0
DA:350,0
DA:351,0
DA:352,0
DA:353,0
DA:354,0
DA:355,0
DA:356,0
DA:357,0
DA:360,0
DA:361,0
DA:362,0
DA:363,0
DA:364,0
DA:365,0
DA:366,0
DA:367,0
DA:368,0
DA:369,0
DA:370,0
DA:371,0
DA:372,0
DA:374,0
DA:376,0
DA:379,0
DA:380,0
DA:381,0
DA:382,0
DA:383,0
DA:384,0
DA:385,0
DA:386,0
DA:387,0
DA:388,0
DA:390,0
DA:392,0
DA:395,0
DA:396,0
DA:397,0
DA:398,0
DA:399,0
DA:400,0
DA:401,0
DA:402,0
DA:403,0
DA:404,0
DA:406,0
DA:408,0
BRF:0
BRH:0
LF:275
LH:0
end_of_record
SF:/Users/a.gerasimchuk/Documents/git/pjs/crates/pjs-core/src/compression/mod.rs
FN:125,_RNCNCNvMNtCskc4teZ54Auy_8pjson_rs11compressionNtB6_14SchemaAnalyzer22analyze_array_patternss0_00B8_
FN:233,_RNCNvMNtCskc4teZ54Auy_8pjson_rs11compressionNtB4_14SchemaAnalyzer18determine_strategy0B6_
FN:242,_RNCNvMNtCskc4teZ54Auy_8pjson_rs11compressionNtB4_14SchemaAnalyzer18determine_strategys0_0B6_
FN:271,_RNCNvMNtCskc4teZ54Auy_8pjson_rs11compressionNtB4_14SchemaAnalyzer18determine_strategys1_0B6_
FN:272,_RNCNvMNtCskc4teZ54Auy_8pjson_rs11compressionNtB4_14SchemaAnalyzer18determine_strategys2_0B6_
FN:236,_RNCNvMNtCskc4teZ54Auy_8pjson_rs11compressionNtB4_14SchemaAnalyzer18determine_strategys_0B6_
FN:118,_RNCNvMNtCskc4teZ54Auy_8pjson_rs11compressionNtB4_14SchemaAnalyzer22analyze_array_patterns0B6_
FN:124,_RNCNvMNtCskc4teZ54Auy_8pjson_rs11compressionNtB4_14SchemaAnalyzer22analyze_array_patternss0_0B6_
FN:123,_RNCNvMNtCskc4teZ54Auy_8pjson_rs11compressionNtB4_14SchemaAnalyzer22analyze_array_patternss_0B6_
FN:186,_RNCNvMNtCskc4teZ54Auy_8pjson_rs11compressionNtB4_14SchemaAnalyzer22analyze_string_pattern0B6_
FN:201,_RNCNvMNtCskc4teZ54Auy_8pjson_rs11compressionNtB4_14SchemaAnalyzer23analyze_numeric_pattern0B6_
FN:425,_RNCNvMs_NtCskc4teZ54Auy_8pjson_rs11compressionNtB6_16SchemaCompressor15compress_hybrid0B8_
FN:380,_RNCNvMs_NtCskc4teZ54Auy_8pjson_rs11compressionNtB6_16SchemaCompressor19compress_with_delta0B8_
FN:357,_RNCNvMs_NtCskc4teZ54Auy_8pjson_rs11compressionNtB6_16SchemaCompressor24compress_with_dictionary0B8_
FN:395,_RNCNvMs_NtCskc4teZ54Auy_8pjson_rs11compressionNtB6_16SchemaCompressor24compress_with_run_length0B8_
FN:451,_RNCNvMs_NtCskc4teZ54Auy_8pjson_rs11compressionNtB6_16SchemaCompressor28replace_strings_with_indices0B8_
FN:321,_RNCNvMs_NtCskc4teZ54Auy_8pjson_rs11compressionNtB6_16SchemaCompressor8compress0B8_
FN:78,_RNvMNtCskc4teZ54Auy_8pjson_rs11compressionNtB2_14SchemaAnalyzer17analyze_recursive
FN:210,_RNvMNtCskc4teZ54Auy_8pjson_rs11compressionNtB2_14SchemaAnalyzer18determine_strategy
FN:114,_RNvMNtCskc4teZ54Auy_8pjson_rs11compressionNtB2_14SchemaAnalyzer22analyze_array_patterns
FN:169,_RNvMNtCskc4teZ54Auy_8pjson_rs11compressionNtB2_14SchemaAnalyzer22analyze_string_pattern
FN:197,_RNvMNtCskc4teZ54Auy_8pjson_rs11compressionNtB2_14SchemaAnalyzer23analyze_numeric_pattern
FN:55,_RNvMNtCskc4teZ54Auy_8pjson_rs11compressionNtB2_14SchemaAnalyzer3new
FN:64,_RNvMNtCskc4teZ54Auy_8pjson_rs11compressionNtB2_14SchemaAnalyzer7analyze
FN:485,_RNvMs0_NtCskc4teZ54Auy_8pjson_rs11compressionNtB5_14CompressedData17compression_ratio
FN:493,_RNvMs0_NtCskc4teZ54Auy_8pjson_rs11compressionNtB5_14CompressedData19compression_savings
FN:302,_RNvMs_NtCskc4teZ54Auy_8pjson_rs11compressionNtB4_16SchemaCompressor13with_strategy
FN:407,_RNvMs_NtCskc4teZ54Auy_8pjson_rs11compressionNtB4_16SchemaCompressor15compress_hybrid
FN:369,_RNvMs_NtCskc4teZ54Auy_8pjson_rs11compressionNtB4_16SchemaCompressor19compress_with_delta
FN:310,_RNvMs_NtCskc4teZ54Auy_8pjson_rs11compressionNtB4_16SchemaCompressor20analyze_and_optimize
FN:467,_RNvMs_NtCskc4teZ54Auy_8pjson_rs11compressionNtB4_16SchemaCompressor23apply_delta_compression
FN:346,_RNvMs_NtCskc4teZ54Auy_8pjson_rs11compressionNtB4_16SchemaCompressor24compress_with_dictionary
FN:392,_RNvMs_NtCskc4teZ54Auy_8pjson_rs11compressionNtB4_16SchemaCompressor24compress_with_run_length
FN:437,_RNvMs_NtCskc4teZ54Auy_8pjson_rs11compressionNtB4_16SchemaCompressor28replace_strings_with_indices
FN:294,_RNvMs_NtCskc4teZ54Auy_8pjson_rs11compressionNtB4_16SchemaCompressor3new
FN:316,_RNvMs_NtCskc4teZ54Auy_8pjson_rs11compressionNtB4_16SchemaCompressor8compress
FN:499,_RNvXs1_NtCskc4teZ54Auy_8pjson_rs11compressionNtB5_14SchemaAnalyzerNtNtCsd2KPTObkMr_4core7default7Default7default
FN:505,_RNvXs2_NtCskc4teZ54Auy_8pjson_rs11compressionNtB5_16SchemaCompressorNtNtCsd2KPTObkMr_4core7default7Default7default
FNDA:0,_RNCNCNvMNtCskc4teZ54Auy_8pjson_rs11compressionNtB6_14SchemaAnalyzer22analyze_array_patternss0_00B8_
FNDA:0,_RNCNvMNtCskc4teZ54Auy_8pjson_rs11compressionNtB4_14SchemaAnalyzer18determine_strategy0B6_
FNDA:0,_RNCNvMNtCskc4teZ54Auy_8pjson_rs11compressionNtB4_14SchemaAnalyzer18determine_strategys0_0B6_
FNDA:0,_RNCNvMNtCskc4teZ54Auy_8pjson_rs11compressionNtB4_14SchemaAnalyzer18determine_strategys1_0B6_
FNDA:0,_RNCNvMNtCskc4teZ54Auy_8pjson_rs11compressionNtB4_14SchemaAnalyzer18determine_strategys2_0B6_
FNDA:0,_RNCNvMNtCskc4teZ54Auy_8pjson_rs11compressionNtB4_14SchemaAnalyzer18determine_strategys_0B6_
FNDA:0,_RNCNvMNtCskc4teZ54Auy_8pjson_rs11compressionNtB4_14SchemaAnalyzer22analyze_array_patterns0B6_
FNDA:0,_RNCNvMNtCskc4teZ54Auy_8pjson_rs11compressionNtB4_14SchemaAnalyzer22analyze_array_patternss0_0B6_
FNDA:0,_RNCNvMNtCskc4teZ54Auy_8pjson_rs11compressionNtB4_14SchemaAnalyzer22analyze_array_patternss_0B6_
FNDA:0,_RNCNvMNtCskc4teZ54Auy_8pjson_rs11compressionNtB4_14SchemaAnalyzer22analyze_string_pattern0B6_
FNDA:0,_RNCNvMNtCskc4teZ54Auy_8pjson_rs11compressionNtB4_14SchemaAnalyzer23analyze_numeric_pattern0B6_
FNDA:0,_RNCNvMs_NtCskc4teZ54Auy_8pjson_rs11compressionNtB6_16SchemaCompressor15compress_hybrid0B8_
FNDA:0,_RNCNvMs_NtCskc4teZ54Auy_8pjson_rs11compressionNtB6_16SchemaCompressor19compress_with_delta0B8_
FNDA:0,_RNCNvMs_NtCskc4teZ54Auy_8pjson_rs11compressionNtB6_16SchemaCompressor24compress_with_dictionary0B8_
FNDA:0,_RNCNvMs_NtCskc4teZ54Auy_8pjson_rs11compressionNtB6_16SchemaCompressor24compress_with_run_length0B8_
FNDA:0,_RNCNvMs_NtCskc4teZ54Auy_8pjson_rs11compressionNtB6_16SchemaCompressor28replace_strings_with_indices0B8_
FNDA:0,_RNCNvMs_NtCskc4teZ54Auy_8pjson_rs11compressionNtB6_16SchemaCompressor8compress0B8_
FNDA:0,_RNvMNtCskc4teZ54Auy_8pjson_rs11compressionNtB2_14SchemaAnalyzer17analyze_recursive
FNDA:0,_RNvMNtCskc4teZ54Auy_8pjson_rs11compressionNtB2_14SchemaAnalyzer18determine_strategy
FNDA:0,_RNvMNtCskc4teZ54Auy_8pjson_rs11compressionNtB2_14SchemaAnalyzer22analyze_array_patterns
FNDA:0,_RNvMNtCskc4teZ54Auy_8pjson_rs11compressionNtB2_14SchemaAnalyzer22analyze_string_pattern
FNDA:0,_RNvMNtCskc4teZ54Auy_8pjson_rs11compressionNtB2_14SchemaAnalyzer23analyze_numeric_pattern
FNDA:0,_RNvMNtCskc4teZ54Auy_8pjson_rs11compressionNtB2_14SchemaAnalyzer3new
FNDA:0,_RNvMNtCskc4teZ54Auy_8pjson_rs11compressionNtB2_14SchemaAnalyzer7analyze
FNDA:0,_RNvMs0_NtCskc4teZ54Auy_8pjson_rs11compressionNtB5_14CompressedData17compression_ratio
FNDA:0,_RNvMs0_NtCskc4teZ54Auy_8pjson_rs11compressionNtB5_14CompressedData19compression_savings
FNDA:0,_RNvMs_NtCskc4teZ54Auy_8pjson_rs11compressionNtB4_16SchemaCompressor13with_strategy
FNDA:0,_RNvMs_NtCskc4teZ54Auy_8pjson_rs11compressionNtB4_16SchemaCompressor15compress_hybrid
FNDA:0,_RNvMs_NtCskc4teZ54Auy_8pjson_rs11compressionNtB4_16SchemaCompressor19compress_with_delta
FNDA:0,_RNvMs_NtCskc4teZ54Auy_8pjson_rs11compressionNtB4_16SchemaCompressor20analyze_and_optimize
FNDA:0,_RNvMs_NtCskc4teZ54Auy_8pjson_rs11compressionNtB4_16SchemaCompressor23apply_delta_compression
FNDA:0,_RNvMs_NtCskc4teZ54Auy_8pjson_rs11compressionNtB4_16SchemaCompressor24compress_with_dictionary
FNDA:0,_RNvMs_NtCskc4teZ54Auy_8pjson_rs11compressionNtB4_16SchemaCompressor24compress_with_run_length
FNDA:0,_RNvMs_NtCskc4teZ54Auy_8pjson_rs11compressionNtB4_16SchemaCompressor28replace_strings_with_indices
FNDA:0,_RNvMs_NtCskc4teZ54Auy_8pjson_rs11compressionNtB4_16SchemaCompressor3new
FNDA:0,_RNvMs_NtCskc4teZ54Auy_8pjson_rs11compressionNtB4_16SchemaCompressor8compress
FNDA:0,_RNvXs1_NtCskc4teZ54Auy_8pjson_rs11compressionNtB5_14SchemaAnalyzerNtNtCsd2KPTObkMr_4core7default7Default7default
FNDA:0,_RNvXs2_NtCskc4teZ54Auy_8pjson_rs11compressionNtB5_16SchemaCompressorNtNtCsd2KPTObkMr_4core7default7Default7default
FNF:38
FNH:0
DA:55,0
DA:56,0
DA:57,0
DA:58,0
DA:59,0
DA:60,0
DA:61,0
DA:64,0
DA:66,0
DA:67,0
DA:68,0
DA:71,0
DA:74,0
DA:75,0
DA:78,0
DA:79,0
DA:80,0
DA:81,0
DA:82,0
DA:83,0
DA:85,0
DA:87,0
DA:90,0
DA:92,0
DA:93,0
DA:94,0
DA:95,0
DA:96,0
DA:97,0
DA:100,0
DA:101,0
DA:102,0
DA:103,0
DA:104,0
DA:105,0
DA:106,0
DA:108,0
DA:110,0
DA:111,0
DA:114,0
DA:116,0
DA:117,0
DA:118,0
DA:119,0
DA:122,0
DA:123,0
DA:124,0
DA:125,0
DA:126,0
DA:127,0
DA:128,0
DA:130,0
DA:131,0
DA:132,0
DA:133,0
DA:134,0
DA:135,0
DA:136,0
DA:137,0
DA:138,0
DA:141,0
DA:142,0
DA:143,0
DA:144,0
DA:145,0
DA:146,0
DA:147,0
DA:148,0
DA:150,0
DA:153,0
DA:154,0
DA:155,0
DA:156,0
DA:157,0
DA:158,0
DA:159,0
DA:160,0
DA:161,0
DA:163,0
DA:165,0
DA:166,0
DA:169,0
DA:171,0
DA:174,0
DA:176,0
DA:177,0
DA:178,0
DA:179,0
DA:180,0
DA:181,0
DA:182,0
DA:183,0
DA:186,0
DA:187,0
DA:188,0
DA:189,0
DA:190,0
DA:191,0
DA:192,0
DA:193,0
DA:194,0
DA:197,0
DA:198,0
DA:199,0
DA:200,0
DA:201,0
DA:203,0
DA:204,0
DA:206,0
DA:207,0
DA:210,0
DA:212,0
DA:213,0
DA:216,0
DA:217,0
DA:219,0
DA:220,0
DA:221,0
DA:222,0
DA:223,0
DA:224,0
DA:228,0
DA:230,0
DA:231,0
DA:233,0
DA:235,0
DA:236,0
DA:237,0
DA:239,0
DA:240,0
DA:241,0
DA:242,0
DA:243,0
DA:246,0
DA:248,0
DA:249,0
DA:250,0
DA:251,0
DA:252,0
DA:253,0
DA:257,0
DA:258,0
DA:259,0
DA:260,0
DA:261,0
DA:262,0
DA:263,0
DA:264,0
DA:265,0
DA:266,0
DA:267,0
DA:270,0
DA:271,0
DA:272,0
DA:273,0
DA:275,0
DA:276,0
DA:278,0
DA:282,0
DA:294,0
DA:295,0
DA:296,0
DA:297,0
DA:298,0
DA:299,0
DA:302,0
DA:303,0
DA:304,0
DA:305,0
DA:306,0
DA:307,0
DA:310,0
DA:311,0
DA:312,0
DA:313,0
DA:316,0
DA:317,0
DA:319,0
DA:320,0
DA:321,0
DA:322,0
DA:323,0
DA:324,0
DA:327,0
DA:328,0
DA:331,0
DA:332,0
DA:336,0
DA:339,0
DA:340,0
DA:343,0
DA:346,0
DA:347,0
DA:350,0
DA:351,0
DA:352,0
DA:355,0
DA:356,0
DA:357,0
DA:358,0
DA:360,0
DA:361,0
DA:362,0
DA:363,0
DA:364,0
DA:365,0
DA:366,0
DA:369,0
DA:370,0
DA:373,0
DA:374,0
DA:375,0
DA:378,0
DA:379,0
DA:380,0
DA:381,0
DA:383,0
DA:384,0
DA:385,0
DA:386,0
DA:387,0
DA:388,0
DA:389,0
DA:392,0
DA:394,0
DA:395,0
DA:396,0
DA:398,0
DA:399,0
DA:400,0
DA:401,0
DA:402,0
DA:403,0
DA:404,0
DA:407,0
DA:408,0
DA:411,0
DA:412,0
DA:413,0
DA:416,0
DA:417,0
DA:418,0
DA:421,0
DA:422,0
DA:424,0
DA:425,0
DA:426,0
DA:428,0
DA:429,0
DA:430,0
DA:431,0
DA:432,0
DA:433,0
DA:434,0
DA:437,0
DA:438,0
DA:439,0
DA:440,0
DA:441,0
DA:442,0
DA:443,0
DA:444,0
DA:447,0
DA:449,0
DA:450,0
DA:451,0
DA:452,0
DA:453,0
DA:455,0
DA:456,0
DA:457,0
DA:459,0
DA:462,0
DA:464,0
DA:467,0
DA:470,0
DA:471,0
DA:485,0
DA:486,0
DA:487,0
DA:488,0
DA:489,0
DA:490,0
DA:493,0
DA:494,0
DA:495,0
DA:499,0
DA:500,0
DA:501,0
DA:505,0
DA:506,0
DA:507,0
BRF:0
BRH:0
LF:308
LH:0
end_of_record
SF:/Users/a.gerasimchuk/Documents/git/pjs/crates/pjs-core/src/domain/aggregates/stream_session.rs
FN:297,_RNCNvMs_NtNtNtCskc4teZ54Auy_8pjson_rs6domain10aggregates14stream_sessionNtB6_13StreamSession11fail_stream0Bc_
FN:432,_RNCNvMs_NtNtNtCskc4teZ54Auy_8pjson_rs6domain10aggregates14stream_sessionNtB6_13StreamSession12health_check0Bc_
FN:436,_RNCNvMs_NtNtNtCskc4teZ54Auy_8pjson_rs6domain10aggregates14stream_sessionNtB6_13StreamSession12health_checks_0Bc_
FN:247,_RNCNvMs_NtNtNtCskc4teZ54Auy_8pjson_rs6domain10aggregates14stream_sessionNtB6_13StreamSession12start_stream0Bc_
FN:266,_RNCNvMs_NtNtNtCskc4teZ54Auy_8pjson_rs6domain10aggregates14stream_sessionNtB6_13StreamSession15complete_stream0Bc_
FN:346,_RNCNvMs_NtNtNtCskc4teZ54Auy_8pjson_rs6domain10aggregates14stream_sessionNtB6_13StreamSession22create_priority_frames0Bc_
FN:379,_RNCNvMs_NtNtNtCskc4teZ54Auy_8pjson_rs6domain10aggregates14stream_sessionNtB6_13StreamSession5close0Bc_
FN:157,_RNCNvMs_NtNtNtCskc4teZ54Auy_8pjson_rs6domain10aggregates14stream_sessionNtB6_13StreamSession8duration0Bc_
FN:136,_RNvMs_NtNtNtCskc4teZ54Auy_8pjson_rs6domain10aggregates14stream_sessionNtB4_13StreamSession10created_at
FN:146,_RNvMs_NtNtNtCskc4teZ54Auy_8pjson_rs6domain10aggregates14stream_sessionNtB4_13StreamSession10expires_at
FN:176,_RNvMs_NtNtNtCskc4teZ54Auy_8pjson_rs6domain10aggregates14stream_sessionNtB4_13StreamSession10get_stream
FN:161,_RNvMs_NtNtNtCskc4teZ54Auy_8pjson_rs6domain10aggregates14stream_sessionNtB4_13StreamSession10is_expired
FN:141,_RNvMs_NtNtNtCskc4teZ54Auy_8pjson_rs6domain10aggregates14stream_sessionNtB4_13StreamSession10updated_at
FN:293,_RNvMs_NtNtNtCskc4teZ54Auy_8pjson_rs6domain10aggregates14stream_sessionNtB4_13StreamSession11fail_stream
FN:426,_RNvMs_NtNtNtCskc4teZ54Auy_8pjson_rs6domain10aggregates14stream_sessionNtB4_13StreamSession11take_events
FN:151,_RNvMs_NtNtNtCskc4teZ54Auy_8pjson_rs6domain10aggregates14stream_sessionNtB4_13StreamSession12completed_at
FN:431,_RNvMs_NtNtNtCskc4teZ54Auy_8pjson_rs6domain10aggregates14stream_sessionNtB4_13StreamSession12health_check
FN:243,_RNvMs_NtNtNtCskc4teZ54Auy_8pjson_rs6domain10aggregates14stream_sessionNtB4_13StreamSession12start_stream
FN:207,_RNvMs_NtNtNtCskc4teZ54Auy_8pjson_rs6domain10aggregates14stream_sessionNtB4_13StreamSession13create_stream
FN:181,_RNvMs_NtNtNtCskc4teZ54Auy_8pjson_rs6domain10aggregates14stream_sessionNtB4_13StreamSession14get_stream_mut
FN:421,_RNvMs_NtNtNtCskc4teZ54Auy_8pjson_rs6domain10aggregates14stream_sessionNtB4_13StreamSession14pending_events
FN:262,_RNvMs_NtNtNtCskc4teZ54Auy_8pjson_rs6domain10aggregates14stream_sessionNtB4_13StreamSession15complete_stream
FN:408,_RNvMs_NtNtNtCskc4teZ54Auy_8pjson_rs6domain10aggregates14stream_sessionNtB4_13StreamSession15set_client_info
FN:459,_RNvMs_NtNtNtCskc4teZ54Auy_8pjson_rs6domain10aggregates14stream_sessionNtB4_13StreamSession16update_timestamp
FN:318,_RNvMs_NtNtNtCskc4teZ54Auy_8pjson_rs6domain10aggregates14stream_sessionNtB4_13StreamSession22create_priority_frames
FN:116,_RNvMs_NtNtNtCskc4teZ54Auy_8pjson_rs6domain10aggregates14stream_sessionNtB4_13StreamSession2id
FN:94,_RNvMs_NtNtNtCskc4teZ54Auy_8pjson_rs6domain10aggregates14stream_sessionNtB4_13StreamSession3new
FN:370,_RNvMs_NtNtNtCskc4teZ54Auy_8pjson_rs6domain10aggregates14stream_sessionNtB4_13StreamSession5close
FN:121,_RNvMs_NtNtNtCskc4teZ54Auy_8pjson_rs6domain10aggregates14stream_sessionNtB4_13StreamSession5state
FN:131,_RNvMs_NtNtNtCskc4teZ54Auy_8pjson_rs6domain10aggregates14stream_sessionNtB4_13StreamSession5stats
FN:126,_RNvMs_NtNtNtCskc4teZ54Auy_8pjson_rs6domain10aggregates14stream_sessionNtB4_13StreamSession6config
FN:171,_RNvMs_NtNtNtCskc4teZ54Auy_8pjson_rs6domain10aggregates14stream_sessionNtB4_13StreamSession7streams
FN:186,_RNvMs_NtNtNtCskc4teZ54Auy_8pjson_rs6domain10aggregates14stream_sessionNtB4_13StreamSession8activate
FN:156,_RNvMs_NtNtNtCskc4teZ54Auy_8pjson_rs6domain10aggregates14stream_sessionNtB4_13StreamSession8duration
FN:454,_RNvMs_NtNtNtCskc4teZ54Auy_8pjson_rs6domain10aggregates14stream_sessionNtB4_13StreamSession9add_event
FN:166,_RNvMs_NtNtNtCskc4teZ54Auy_8pjson_rs6domain10aggregates14stream_sessionNtB4_13StreamSession9is_active
FN:47,_RNvXNtNtNtCskc4teZ54Auy_8pjson_rs6domain10aggregates14stream_sessionNtB2_13SessionConfigNtNtCsd2KPTObkMr_4core7default7Default7default
FNDA:0,_RNCNvMs_NtNtNtCskc4teZ54Auy_8pjson_rs6domain10aggregates14stream_sessionNtB6_13StreamSession11fail_stream0Bc_
FNDA:0,_RNCNvMs_NtNtNtCskc4teZ54Auy_8pjson_rs6domain10aggregates14stream_sessionNtB6_13StreamSession12health_check0Bc_
FNDA:0,_RNCNvMs_NtNtNtCskc4teZ54Auy_8pjson_rs6domain10aggregates14stream_sessionNtB6_13StreamSession12health_checks_0Bc_
FNDA:0,_RNCNvMs_NtNtNtCskc4teZ54Auy_8pjson_rs6domain10aggregates14stream_sessionNtB6_13StreamSession12start_stream0Bc_
FNDA:0,_RNCNvMs_NtNtNtCskc4teZ54Auy_8pjson_rs6domain10aggregates14stream_sessionNtB6_13StreamSession15complete_stream0Bc_
FNDA:0,_RNCNvMs_NtNtNtCskc4teZ54Auy_8pjson_rs6domain10aggregates14stream_sessionNtB6_13StreamSession22create_priority_frames0Bc_
FNDA:0,_RNCNvMs_NtNtNtCskc4teZ54Auy_8pjson_rs6domain10aggregates14stream_sessionNtB6_13StreamSession5close0Bc_
FNDA:0,_RNCNvMs_NtNtNtCskc4teZ54Auy_8pjson_rs6domain10aggregates14stream_sessionNtB6_13StreamSession8duration0Bc_
FNDA:0,_RNvMs_NtNtNtCskc4teZ54Auy_8pjson_rs6domain10aggregates14stream_sessionNtB4_13StreamSession10created_at
FNDA:0,_RNvMs_NtNtNtCskc4teZ54Auy_8pjson_rs6domain10aggregates14stream_sessionNtB4_13StreamSession10expires_at
FNDA:0,_RNvMs_NtNtNtCskc4teZ54Auy_8pjson_rs6domain10aggregates14stream_sessionNtB4_13StreamSession10get_stream
FNDA:0,_RNvMs_NtNtNtCskc4teZ54Auy_8pjson_rs6domain10aggregates14stream_sessionNtB4_13StreamSession10is_expired
FNDA:0,_RNvMs_NtNtNtCskc4teZ54Auy_8pjson_rs6domain10aggregates14stream_sessionNtB4_13StreamSession10updated_at
FNDA:0,_RNvMs_NtNtNtCskc4teZ54Auy_8pjson_rs6domain10aggregates14stream_sessionNtB4_13StreamSession11fail_stream
FNDA:0,_RNvMs_NtNtNtCskc4teZ54Auy_8pjson_rs6domain10aggregates14stream_sessionNtB4_13StreamSession11take_events
FNDA:0,_RNvMs_NtNtNtCskc4teZ54Auy_8pjson_rs6domain10aggregates14stream_sessionNtB4_13StreamSession12completed_at
FNDA:0,_RNvMs_NtNtNtCskc4teZ54Auy_8pjson_rs6domain10aggregates14stream_sessionNtB4_13StreamSession12health_check
FNDA:0,_RNvMs_NtNtNtCskc4teZ54Auy_8pjson_rs6domain10aggregates14stream_sessionNtB4_13StreamSession12start_stream
FNDA:0,_RNvMs_NtNtNtCskc4teZ54Auy_8pjson_rs6domain10aggregates14stream_sessionNtB4_13StreamSession13create_stream
FNDA:0,_RNvMs_NtNtNtCskc4teZ54Auy_8pjson_rs6domain10aggregates14stream_sessionNtB4_13StreamSession14get_stream_mut
FNDA:0,_RNvMs_NtNtNtCskc4teZ54Auy_8pjson_rs6domain10aggregates14stream_sessionNtB4_13StreamSession14pending_events
FNDA:0,_RNvMs_NtNtNtCskc4teZ54Auy_8pjson_rs6domain10aggregates14stream_sessionNtB4_13StreamSession15complete_stream
FNDA:0,_RNvMs_NtNtNtCskc4teZ54Auy_8pjson_rs6domain10aggregates14stream_sessionNtB4_13StreamSession15set_client_info
FNDA:0,_RNvMs_NtNtNtCskc4teZ54Auy_8pjson_rs6domain10aggregates14stream_sessionNtB4_13StreamSession16update_timestamp
FNDA:0,_RNvMs_NtNtNtCskc4teZ54Auy_8pjson_rs6domain10aggregates14stream_sessionNtB4_13StreamSession22create_priority_frames
FNDA:0,_RNvMs_NtNtNtCskc4teZ54Auy_8pjson_rs6domain10aggregates14stream_sessionNtB4_13StreamSession2id
FNDA:0,_RNvMs_NtNtNtCskc4teZ54Auy_8pjson_rs6domain10aggregates14stream_sessionNtB4_13StreamSession3new
FNDA:0,_RNvMs_NtNtNtCskc4teZ54Auy_8pjson_rs6domain10aggregates14stream_sessionNtB4_13StreamSession5close
FNDA:0,_RNvMs_NtNtNtCskc4teZ54Auy_8pjson_rs6domain10aggregates14stream_sessionNtB4_13StreamSession5state
FNDA:0,_RNvMs_NtNtNtCskc4teZ54Auy_8pjson_rs6domain10aggregates14stream_sessionNtB4_13StreamSession5stats
FNDA:0,_RNvMs_NtNtNtCskc4teZ54Auy_8pjson_rs6domain10aggregates14stream_sessionNtB4_13StreamSession6config
FNDA:0,_RNvMs_NtNtNtCskc4teZ54Auy_8pjson_rs6domain10aggregates14stream_sessionNtB4_13StreamSession7streams
FNDA:0,_RNvMs_NtNtNtCskc4teZ54Auy_8pjson_rs6domain10aggregates14stream_sessionNtB4_13StreamSession8activate
FNDA:0,_RNvMs_NtNtNtCskc4teZ54Auy_8pjson_rs6domain10aggregates14stream_sessionNtB4_13StreamSession8duration
FNDA:0,_RNvMs_NtNtNtCskc4teZ54Auy_8pjson_rs6domain10aggregates14stream_sessionNtB4_13StreamSession9add_event
FNDA:0,_RNvMs_NtNtNtCskc4teZ54Auy_8pjson_rs6domain10aggregates14stream_sessionNtB4_13StreamSession9is_active
FNDA:0,_RNvXNtNtNtCskc4teZ54Auy_8pjson_rs6domain10aggregates14stream_sessionNtB2_13SessionConfigNtNtCsd2KPTObkMr_4core7default7Default7default
FNF:37
FNH:0
DA:47,0
DA:48,0
DA:49,0
DA:50,0
DA:51,0
DA:52,0
DA:53,0
DA:54,0
DA:55,0
DA:94,0
DA:95,0
DA:96,0
DA:98,0
DA:99,0
DA:100,0
DA:101,0
DA:102,0
DA:103,0
DA:104,0
DA:105,0
DA:106,0
DA:107,0
DA:108,0
DA:109,0
DA:110,0
DA:111,0
DA:112,0
DA:113,0
DA:116,0
DA:117,0
DA:118,0
DA:121,0
DA:122,0
DA:123,0
DA:126,0
DA:127,0
DA:128,0
DA:131,0
DA:132,0
DA:133,0
DA:136,0
DA:137,0
DA:138,0
DA:141,0
DA:142,0
DA:143,0
DA:146,0
DA:147,0
DA:148,0
DA:151,0
DA:152,0
DA:153,0
DA:156,0
DA:157,0
DA:158,0
DA:161,0
DA:162,0
DA:163,0
DA:166,0
DA:167,0
DA:168,0
DA:171,0
DA:172,0
DA:173,0
DA:176,0
DA:177,0
DA:178,0
DA:181,0
DA:182,0
DA:183,0
DA:186,0
DA:187,0
DA:189,0
DA:190,0
DA:192,0
DA:193,0
DA:194,0
DA:195,0
DA:197,0
DA:199,0
DA:200,0
DA:201,0
DA:202,0
DA:204,0
DA:207,0
DA:208,0
DA:209,0
DA:210,0
DA:211,0
DA:212,0
DA:214,0
DA:215,0
DA:216,0
DA:217,0
DA:218,0
DA:219,0
DA:221,0
DA:222,0
DA:223,0
DA:224,0
DA:226,0
DA:228,0
DA:229,0
DA:230,0
DA:231,0
DA:233,0
DA:234,0
DA:235,0
DA:236,0
DA:237,0
DA:239,0
DA:240,0
DA:243,0
DA:244,0
DA:245,0
DA:246,0
DA:247,0
DA:249,0
DA:250,0
DA:252,0
DA:253,0
DA:254,0
DA:255,0
DA:256,0
DA:258,0
DA:259,0
DA:262,0
DA:263,0
DA:264,0
DA:265,0
DA:266,0
DA:268,0
DA:271,0
DA:272,0
DA:275,0
DA:276,0
DA:277,0
DA:278,0
DA:279,0
DA:281,0
DA:283,0
DA:284,0
DA:285,0
DA:286,0
DA:287,0
DA:289,0
DA:290,0
DA:293,0
DA:294,0
DA:295,0
DA:296,0
DA:297,0
DA:299,0
DA:302,0
DA:303,0
DA:305,0
DA:307,0
DA:308,0
DA:309,0
DA:310,0
DA:311,0
DA:312,0
DA:314,0
DA:315,0
DA:318,0
DA:319,0
DA:320,0
DA:321,0
DA:322,0
DA:323,0
DA:325,0
DA:326,0
DA:329,0
DA:331,0
DA:332,0
DA:333,0
DA:334,0
DA:337,0
DA:339,0
DA:340,0
DA:341,0
DA:342,0
DA:346,0
DA:349,0
DA:350,0
DA:351,0
DA:352,0
DA:355,0
DA:356,0
DA:358,0
DA:359,0
DA:360,0
DA:361,0
DA:362,0
DA:363,0
DA:364,0
DA:366,0
DA:367,0
DA:370,0
DA:371,0
DA:373,0
DA:376,0
DA:377,0
DA:378,0
DA:379,0
DA:380,0
DA:381,0
DA:383,0
DA:384,0
DA:385,0
DA:386,0
DA:389,0
DA:390,0
DA:391,0
DA:393,0
DA:394,0
DA:395,0
DA:396,0
DA:398,0
DA:400,0
DA:401,0
DA:402,0
DA:403,0
DA:405,0
DA:408,0
DA:409,0
DA:410,0
DA:411,0
DA:412,0
DA:413,0
DA:414,0
DA:415,0
DA:416,0
DA:417,0
DA:418,0
DA:421,0
DA:422,0
DA:423,0
DA:426,0
DA:427,0
DA:428,0
DA:431,0
DA:432,0
DA:433,0
DA:434,0
DA:435,0
DA:436,0
DA:437,0
DA:438,0
DA:441,0
DA:442,0
DA:445,0
DA:446,0
DA:447,0
DA:448,0
DA:449,0
DA:451,0
DA:454,0
DA:455,0
DA:456,0
DA:459,0
DA:460,0
DA:461,0
BRF:0
BRH:0
LF:271
LH:0
end_of_record
SF:/Users/a.gerasimchuk/Documents/git/pjs/crates/pjs-core/src/domain/entities/frame.rs
FN:129,_RNvMNtNtNtCskc4teZ54Auy_8pjson_rs6domain8entities5frameNtB2_5Frame10frame_type
FN:170,_RNvMNtNtNtCskc4teZ54Auy_8pjson_rs6domain8entities5frameNtB2_5Frame11is_critical
FN:165,_RNvMNtNtNtCskc4teZ54Auy_8pjson_rs6domain8entities5frameNtB2_5Frame12get_metadata
FN:154,_RNvMNtNtNtCskc4teZ54Auy_8pjson_rs6domain8entities5frameNtB2_5Frame13with_metadata
FN:180,_RNvMNtNtNtCskc4teZ54Auy_8pjson_rs6domain8entities5frameNtB2_5Frame14estimated_size
FN:175,_RNvMNtNtNtCskc4teZ54Auy_8pjson_rs6domain8entities5frameNtB2_5Frame16is_high_priority
FN:100,_RNvMNtNtNtCskc4teZ54Auy_8pjson_rs6domain8entities5frameNtB2_5Frame5error
FN:54,_RNvMNtNtNtCskc4teZ54Auy_8pjson_rs6domain8entities5frameNtB2_5Frame5patch
FN:149,_RNvMNtNtNtCskc4teZ54Auy_8pjson_rs6domain8entities5frameNtB2_5Frame7payload
FN:81,_RNvMNtNtNtCskc4teZ54Auy_8pjson_rs6domain8entities5frameNtB2_5Frame8complete
FN:160,_RNvMNtNtNtCskc4teZ54Auy_8pjson_rs6domain8entities5frameNtB2_5Frame8metadata
FN:134,_RNvMNtNtNtCskc4teZ54Auy_8pjson_rs6domain8entities5frameNtB2_5Frame8priority
FN:139,_RNvMNtNtNtCskc4teZ54Auy_8pjson_rs6domain8entities5frameNtB2_5Frame8sequence
FN:41,_RNvMNtNtNtCskc4teZ54Auy_8pjson_rs6domain8entities5frameNtB2_5Frame8skeleton
FN:193,_RNvMNtNtNtCskc4teZ54Auy_8pjson_rs6domain8entities5frameNtB2_5Frame8validate
FN:124,_RNvMNtNtNtCskc4teZ54Auy_8pjson_rs6domain8entities5frameNtB2_5Frame9stream_id
FN:144,_RNvMNtNtNtCskc4teZ54Auy_8pjson_rs6domain8entities5frameNtB2_5Frame9timestamp
FN:268,_RNvMs_NtNtNtCskc4teZ54Auy_8pjson_rs6domain8entities5frameNtB4_10FramePatch3set
FN:286,_RNvMs_NtNtNtCskc4teZ54Auy_8pjson_rs6domain8entities5frameNtB4_10FramePatch5merge
FN:277,_RNvMs_NtNtNtCskc4teZ54Auy_8pjson_rs6domain8entities5frameNtB4_10FramePatch6append
FN:295,_RNvMs_NtNtNtCskc4teZ54Auy_8pjson_rs6domain8entities5frameNtB4_10FramePatch6delete
FN:186,_RNCNvMNtNtNtCskc4teZ54Auy_8pjson_rs6domain8entities5frameNtB4_5Frame14estimated_size0Ba_
FN:67,_RNCNvMNtNtNtCskc4teZ54Auy_8pjson_rs6domain8entities5frameNtB4_5Frame5patch0Ba_
FN:210,_RNCNvMNtNtNtCskc4teZ54Auy_8pjson_rs6domain8entities5frameNtB4_5Frame8validate0Ba_
FN:230,_RNCNvMNtNtNtCskc4teZ54Auy_8pjson_rs6domain8entities5frameNtB4_5Frame8validates_0Ba_
FNDA:0,_RNvMNtNtNtCskc4teZ54Auy_8pjson_rs6domain8entities5frameNtB2_5Frame10frame_type
FNDA:0,_RNvMNtNtNtCskc4teZ54Auy_8pjson_rs6domain8entities5frameNtB2_5Frame11is_critical
FNDA:0,_RNvMNtNtNtCskc4teZ54Auy_8pjson_rs6domain8entities5frameNtB2_5Frame12get_metadata
FNDA:0,_RNvMNtNtNtCskc4teZ54Auy_8pjson_rs6domain8entities5frameNtB2_5Frame13with_metadata
FNDA:0,_RNvMNtNtNtCskc4teZ54Auy_8pjson_rs6domain8entities5frameNtB2_5Frame14estimated_size
FNDA:0,_RNvMNtNtNtCskc4teZ54Auy_8pjson_rs6domain8entities5frameNtB2_5Frame16is_high_priority
FNDA:0,_RNvMNtNtNtCskc4teZ54Auy_8pjson_rs6domain8entities5frameNtB2_5Frame5error
FNDA:0,_RNvMNtNtNtCskc4teZ54Auy_8pjson_rs6domain8entities5frameNtB2_5Frame5patch
FNDA:0,_RNvMNtNtNtCskc4teZ54Auy_8pjson_rs6domain8entities5frameNtB2_5Frame7payload
FNDA:0,_RNvMNtNtNtCskc4teZ54Auy_8pjson_rs6domain8entities5frameNtB2_5Frame8complete
FNDA:0,_RNvMNtNtNtCskc4teZ54Auy_8pjson_rs6domain8entities5frameNtB2_5Frame8metadata
FNDA:0,_RNvMNtNtNtCskc4teZ54Auy_8pjson_rs6domain8entities5frameNtB2_5Frame8priority
FNDA:0,_RNvMNtNtNtCskc4teZ54Auy_8pjson_rs6domain8entities5frameNtB2_5Frame8sequence
FNDA:0,_RNvMNtNtNtCskc4teZ54Auy_8pjson_rs6domain8entities5frameNtB2_5Frame8skeleton
FNDA:0,_RNvMNtNtNtCskc4teZ54Auy_8pjson_rs6domain8entities5frameNtB2_5Frame8validate
FNDA:0,_RNvMNtNtNtCskc4teZ54Auy_8pjson_rs6domain8entities5frameNtB2_5Frame9stream_id
FNDA:0,_RNvMNtNtNtCskc4teZ54Auy_8pjson_rs6domain8entities5frameNtB2_5Frame9timestamp
FNDA:0,_RNvMs_NtNtNtCskc4teZ54Auy_8pjson_rs6domain8entities5frameNtB4_10FramePatch3set
FNDA:0,_RNvMs_NtNtNtCskc4teZ54Auy_8pjson_rs6domain8entities5frameNtB4_10FramePatch5merge
FNDA:0,_RNvMs_NtNtNtCskc4teZ54Auy_8pjson_rs6domain8entities5frameNtB4_10FramePatch6append
FNDA:0,_RNvMs_NtNtNtCskc4teZ54Auy_8pjson_rs6domain8entities5frameNtB4_10FramePatch6delete
FNDA:0,_RNCNvMNtNtNtCskc4teZ54Auy_8pjson_rs6domain8entities5frameNtB4_5Frame14estimated_size0Ba_
FNDA:0,_RNCNvMNtNtNtCskc4teZ54Auy_8pjson_rs6domain8entities5frameNtB4_5Frame5patch0Ba_
FNDA:0,_RNCNvMNtNtNtCskc4teZ54Auy_8pjson_rs6domain8entities5frameNtB4_5Frame8validate0Ba_
FNDA:0,_RNCNvMNtNtNtCskc4teZ54Auy_8pjson_rs6domain8entities5frameNtB4_5Frame8validates_0Ba_
FNF:25
FNH:0
DA:41,0
DA:42,0
DA:43,0
DA:44,0
DA:45,0
DA:46,0
DA:47,0
DA:48,0
DA:49,0
DA:50,0
DA:51,0
DA:54,0
DA:55,0
DA:56,0
DA:57,0
DA:58,0
DA:59,0
DA:60,0
DA:61,0
DA:62,0
DA:63,0
DA:64,0
DA:66,0
DA:67,0
DA:69,0
DA:70,0
DA:71,0
DA:72,0
DA:73,0
DA:74,0
DA:75,0
DA:76,0
DA:77,0
DA:78,0
DA:81,0
DA:82,0
DA:83,0
DA:85,0
DA:88,0
DA:89,0
DA:90,0
DA:91,0
DA:92,0
DA:93,0
DA:94,0
DA:95,0
DA:96,0
DA:97,0
DA:100,0
DA:101,0
DA:102,0
DA:103,0
DA:104,0
DA:105,0
DA:106,0
DA:107,0
DA:109,0
DA:112,0
DA:113,0
DA:114,0
DA:115,0
DA:116,0
DA:117,0
DA:118,0
DA:119,0
DA:120,0
DA:121,0
DA:124,0
DA:125,0
DA:126,0
DA:129,0
DA:130,0
DA:131,0
DA:134,0
DA:135,0
DA:136,0
DA:139,0
DA:140,0
DA:141,0
DA:144,0
DA:145,0
DA:146,0
DA:149,0
DA:150,0
DA:151,0
DA:154,0
DA:155,0
DA:156,0
DA:157,0
DA:160,0
DA:161,0
DA:162,0
DA:165,0
DA:166,0
DA:167,0
DA:170,0
DA:171,0
DA:172,0
DA:175,0
DA:176,0
DA:177,0
DA:180,0
DA:182,0
DA:183,0
DA:184,0
DA:185,0
DA:186,0
DA:187,0
DA:189,0
DA:190,0
DA:193,0
DA:194,0
DA:196,0
DA:197,0
DA:198,0
DA:199,0
DA:200,0
DA:204,0
DA:205,0
DA:206,0
DA:207,0
DA:208,0
DA:210,0
DA:211,0
DA:212,0
DA:213,0
DA:214,0
DA:217,0
DA:218,0
DA:219,0
DA:220,0
DA:221,0
DA:224,0
DA:225,0
DA:226,0
DA:227,0
DA:228,0
DA:230,0
DA:231,0
DA:232,0
DA:233,0
DA:234,0
DA:238,0
DA:239,0
DA:268,0
DA:269,0
DA:270,0
DA:271,0
DA:272,0
DA:273,0
DA:274,0
DA:277,0
DA:278,0
DA:279,0
DA:280,0
DA:281,0
DA:282,0
DA:283,0
DA:286,0
DA:287,0
DA:288,0
DA:289,0
DA:290,0
DA:291,0
DA:292,0
DA:295,0
DA:296,0
DA:297,0
DA:298,0
DA:299,0
DA:300,0
DA:301,0
BRF:0
BRH:0
LF:176
LH:0
end_of_record
SF:/Users/a.gerasimchuk/Documents/git/pjs/crates/pjs-core/src/domain/entities/stream.rs
FN:130,_RNvMs_NtNtNtCskc4teZ54Auy_8pjson_rs6domain8entities6streamNtB4_6Stream10created_at
FN:110,_RNvMs_NtNtNtCskc4teZ54Auy_8pjson_rs6domain8entities6streamNtB4_6Stream10session_id
FN:135,_RNvMs_NtNtNtCskc4teZ54Auy_8pjson_rs6domain8entities6streamNtB4_6Stream10updated_at
FN:289,_RNvMs_NtNtNtCskc4teZ54Auy_8pjson_rs6domain8entities6streamNtB4_6Stream11is_finished
FN:145,_RNvMs_NtNtNtCskc4teZ54Auy_8pjson_rs6domain8entities6streamNtB4_6Stream11source_data
FN:155,_RNvMs_NtNtNtCskc4teZ54Auy_8pjson_rs6domain8entities6streamNtB4_6Stream12add_metadata
FN:140,_RNvMs_NtNtNtCskc4teZ54Auy_8pjson_rs6domain8entities6streamNtB4_6Stream12completed_at
FN:323,_RNvMs_NtNtNtCskc4teZ54Auy_8pjson_rs6domain8entities6streamNtB4_6Stream13update_config
FN:405,_RNvMs_NtNtNtCskc4teZ54Auy_8pjson_rs6domain8entities6streamNtB4_6Stream15extract_patches
FN:161,_RNvMs_NtNtNtCskc4teZ54Auy_8pjson_rs6domain8entities6streamNtB4_6Stream15start_streaming
FN:336,_RNvMs_NtNtNtCskc4teZ54Auy_8pjson_rs6domain8entities6streamNtB4_6Stream16update_timestamp
FN:379,_RNvMs_NtNtNtCskc4teZ54Auy_8pjson_rs6domain8entities6streamNtB4_6Stream17generate_skeleton
FN:244,_RNvMs_NtNtNtCskc4teZ54Auy_8pjson_rs6domain8entities6streamNtB4_6Stream19create_patch_frames
FN:341,_RNvMs_NtNtNtCskc4teZ54Auy_8pjson_rs6domain8entities6streamNtB4_6Stream20record_frame_created
FN:224,_RNvMs_NtNtNtCskc4teZ54Auy_8pjson_rs6domain8entities6streamNtB4_6Stream21create_skeleton_frame
FN:270,_RNvMs_NtNtNtCskc4teZ54Auy_8pjson_rs6domain8entities6streamNtB4_6Stream23create_completion_frame
FN:415,_RNvMs_NtNtNtCskc4teZ54Auy_8pjson_rs6domain8entities6streamNtB4_6Stream25batch_patches_into_frames
FN:105,_RNvMs_NtNtNtCskc4teZ54Auy_8pjson_rs6domain8entities6streamNtB4_6Stream2id
FN:86,_RNvMs_NtNtNtCskc4teZ54Auy_8pjson_rs6domain8entities6streamNtB4_6Stream3new
FN:192,_RNvMs_NtNtNtCskc4teZ54Auy_8pjson_rs6domain8entities6streamNtB4_6Stream4fail
FN:115,_RNvMs_NtNtNtCskc4teZ54Auy_8pjson_rs6domain8entities6streamNtB4_6Stream5state
FN:125,_RNvMs_NtNtNtCskc4teZ54Auy_8pjson_rs6domain8entities6streamNtB4_6Stream5stats
FN:208,_RNvMs_NtNtNtCskc4teZ54Auy_8pjson_rs6domain8entities6streamNtB4_6Stream6cancel
FN:120,_RNvMs_NtNtNtCskc4teZ54Auy_8pjson_rs6domain8entities6streamNtB4_6Stream6config
FN:176,_RNvMs_NtNtNtCskc4teZ54Auy_8pjson_rs6domain8entities6streamNtB4_6Stream8complete
FN:297,_RNvMs_NtNtNtCskc4teZ54Auy_8pjson_rs6domain8entities6streamNtB4_6Stream8duration
FN:150,_RNvMs_NtNtNtCskc4teZ54Auy_8pjson_rs6domain8entities6streamNtB4_6Stream8metadata
FN:302,_RNvMs_NtNtNtCskc4teZ54Auy_8pjson_rs6domain8entities6streamNtB4_6Stream8progress
FN:284,_RNvMs_NtNtNtCskc4teZ54Auy_8pjson_rs6domain8entities6streamNtB4_6Stream9is_active
FN:44,_RNvXNtNtNtCskc4teZ54Auy_8pjson_rs6domain8entities6streamNtB2_12StreamConfigNtNtCsd2KPTObkMr_4core7default7Default7default
FN:255,_RNCNvMs_NtNtNtCskc4teZ54Auy_8pjson_rs6domain8entities6streamNtB6_6Stream19create_patch_frames0Bc_
FN:231,_RNCNvMs_NtNtNtCskc4teZ54Auy_8pjson_rs6domain8entities6streamNtB6_6Stream21create_skeleton_frame0Bc_
FN:298,_RNCNvMs_NtNtNtCskc4teZ54Auy_8pjson_rs6domain8entities6streamNtB6_6Stream8duration0Bc_
FNDA:0,_RNvMs_NtNtNtCskc4teZ54Auy_8pjson_rs6domain8entities6streamNtB4_6Stream10created_at
FNDA:0,_RNvMs_NtNtNtCskc4teZ54Auy_8pjson_rs6domain8entities6streamNtB4_6Stream10session_id
FNDA:0,_RNvMs_NtNtNtCskc4teZ54Auy_8pjson_rs6domain8entities6streamNtB4_6Stream10updated_at
FNDA:0,_RNvMs_NtNtNtCskc4teZ54Auy_8pjson_rs6domain8entities6streamNtB4_6Stream11is_finished
FNDA:0,_RNvMs_NtNtNtCskc4teZ54Auy_8pjson_rs6domain8entities6streamNtB4_6Stream11source_data
FNDA:0,_RNvMs_NtNtNtCskc4teZ54Auy_8pjson_rs6domain8entities6streamNtB4_6Stream12add_metadata
FNDA:0,_RNvMs_NtNtNtCskc4teZ54Auy_8pjson_rs6domain8entities6streamNtB4_6Stream12completed_at
FNDA:0,_RNvMs_NtNtNtCskc4teZ54Auy_8pjson_rs6domain8entities6streamNtB4_6Stream13update_config
FNDA:0,_RNvMs_NtNtNtCskc4teZ54Auy_8pjson_rs6domain8entities6streamNtB4_6Stream15extract_patches
FNDA:0,_RNvMs_NtNtNtCskc4teZ54Auy_8pjson_rs6domain8entities6streamNtB4_6Stream15start_streaming
FNDA:0,_RNvMs_NtNtNtCskc4teZ54Auy_8pjson_rs6domain8entities6streamNtB4_6Stream16update_timestamp
FNDA:0,_RNvMs_NtNtNtCskc4teZ54Auy_8pjson_rs6domain8entities6streamNtB4_6Stream17generate_skeleton
FNDA:0,_RNvMs_NtNtNtCskc4teZ54Auy_8pjson_rs6domain8entities6streamNtB4_6Stream19create_patch_frames
FNDA:0,_RNvMs_NtNtNtCskc4teZ54Auy_8pjson_rs6domain8entities6streamNtB4_6Stream20record_frame_created
FNDA:0,_RNvMs_NtNtNtCskc4teZ54Auy_8pjson_rs6domain8entities6streamNtB4_6Stream21create_skeleton_frame
FNDA:0,_RNvMs_NtNtNtCskc4teZ54Auy_8pjson_rs6domain8entities6streamNtB4_6Stream23create_completion_frame
FNDA:0,_RNvMs_NtNtNtCskc4teZ54Auy_8pjson_rs6domain8entities6streamNtB4_6Stream25batch_patches_into_frames
FNDA:0,_RNvMs_NtNtNtCskc4teZ54Auy_8pjson_rs6domain8entities6streamNtB4_6Stream2id
FNDA:0,_RNvMs_NtNtNtCskc4teZ54Auy_8pjson_rs6domain8entities6streamNtB4_6Stream3new
FNDA:0,_RNvMs_NtNtNtCskc4teZ54Auy_8pjson_rs6domain8entities6streamNtB4_6Stream4fail
FNDA:0,_RNvMs_NtNtNtCskc4teZ54Auy_8pjson_rs6domain8entities6streamNtB4_6Stream5state
FNDA:0,_RNvMs_NtNtNtCskc4teZ54Auy_8pjson_rs6domain8entities6streamNtB4_6Stream5stats
FNDA:0,_RNvMs_NtNtNtCskc4teZ54Auy_8pjson_rs6domain8entities6streamNtB4_6Stream6cancel
FNDA:0,_RNvMs_NtNtNtCskc4teZ54Auy_8pjson_rs6domain8entities6streamNtB4_6Stream6config
FNDA:0,_RNvMs_NtNtNtCskc4teZ54Auy_8pjson_rs6domain8entities6streamNtB4_6Stream8complete
FNDA:0,_RNvMs_NtNtNtCskc4teZ54Auy_8pjson_rs6domain8entities6streamNtB4_6Stream8duration
FNDA:0,_RNvMs_NtNtNtCskc4teZ54Auy_8pjson_rs6domain8entities6streamNtB4_6Stream8metadata
FNDA:0,_RNvMs_NtNtNtCskc4teZ54Auy_8pjson_rs6domain8entities6streamNtB4_6Stream8progress
FNDA:0,_RNvMs_NtNtNtCskc4teZ54Auy_8pjson_rs6domain8entities6streamNtB4_6Stream9is_active
FNDA:0,_RNvXNtNtNtCskc4teZ54Auy_8pjson_rs6domain8entities6streamNtB2_12StreamConfigNtNtCsd2KPTObkMr_4core7default7Default7default
FNDA:0,_RNCNvMs_NtNtNtCskc4teZ54Auy_8pjson_rs6domain8entities6streamNtB6_6Stream19create_patch_frames0Bc_
FNDA:0,_RNCNvMs_NtNtNtCskc4teZ54Auy_8pjson_rs6domain8entities6streamNtB6_6Stream21create_skeleton_frame0Bc_
FNDA:0,_RNCNvMs_NtNtNtCskc4teZ54Auy_8pjson_rs6domain8entities6streamNtB6_6Stream8duration0Bc_
FNF:33
FNH:0
DA:44,0
DA:45,0
DA:46,0
DA:47,0
DA:48,0
DA:49,0
DA:50,0
DA:51,0
DA:86,0
DA:87,0
DA:89,0
DA:90,0
DA:91,0
DA:92,0
DA:93,0
DA:94,0
DA:95,0
DA:96,0
DA:97,0
DA:98,0
DA:99,0
DA:100,0
DA:101,0
DA:102,0
DA:105,0
DA:106,0
DA:107,0
DA:110,0
DA:111,0
DA:112,0
DA:115,0
DA:116,0
DA:117,0
DA:120,0
DA:121,0
DA:122,0
DA:125,0
DA:126,0
DA:127,0
DA:130,0
DA:131,0
DA:132,0
DA:135,0
DA:136,0
DA:137,0
DA:140,0
DA:141,0
DA:142,0
DA:145,0
DA:146,0
DA:147,0
DA:150,0
DA:151,0
DA:152,0
DA:155,0
DA:156,0
DA:157,0
DA:158,0
DA:161,0
DA:162,0
DA:164,0
DA:165,0
DA:166,0
DA:168,0
DA:169,0
DA:170,0
DA:171,0
DA:173,0
DA:176,0
DA:177,0
DA:179,0
DA:180,0
DA:181,0
DA:182,0
DA:184,0
DA:185,0
DA:186,0
DA:187,0
DA:189,0
DA:192,0
DA:193,0
DA:195,0
DA:196,0
DA:197,0
DA:198,0
DA:200,0
DA:201,0
DA:202,0
DA:203,0
DA:205,0
DA:208,0
DA:209,0
DA:211,0
DA:212,0
DA:213,0
DA:214,0
DA:216,0
DA:217,0
DA:218,0
DA:219,0
DA:221,0
DA:224,0
DA:225,0
DA:226,0
DA:227,0
DA:228,0
DA:229,0
DA:231,0
DA:232,0
DA:233,0
DA:235,0
DA:236,0
DA:238,0
DA:240,0
DA:241,0
DA:244,0
DA:245,0
DA:246,0
DA:247,0
DA:248,0
DA:249,0
DA:250,0
DA:251,0
DA:252,0
DA:253,0
DA:255,0
DA:256,0
DA:257,0
DA:259,0
DA:260,0
DA:262,0
DA:263,0
DA:264,0
DA:266,0
DA:267,0
DA:270,0
DA:271,0
DA:272,0
DA:273,0
DA:274,0
DA:275,0
DA:277,0
DA:278,0
DA:280,0
DA:281,0
DA:284,0
DA:285,0
DA:286,0
DA:289,0
DA:290,0
DA:291,0
DA:294,0
DA:297,0
DA:298,0
DA:299,0
DA:302,0
DA:303,0
DA:304,0
DA:307,0
DA:308,0
DA:311,0
DA:314,0
DA:317,0
DA:320,0
DA:323,0
DA:324,0
DA:325,0
DA:326,0
DA:327,0
DA:328,0
DA:330,0
DA:331,0
DA:332,0
DA:333,0
DA:336,0
DA:337,0
DA:338,0
DA:341,0
DA:342,0
DA:343,0
DA:345,0
DA:346,0
DA:348,0
DA:349,0
DA:350,0
DA:351,0
DA:352,0
DA:354,0
DA:355,0
DA:356,0
DA:357,0
DA:358,0
DA:359,0
DA:361,0
DA:362,0
DA:363,0
DA:364,0
DA:365,0
DA:366,0
DA:367,0
DA:368,0
DA:372,0
DA:373,0
DA:375,0
DA:376,0
DA:379,0
DA:381,0
DA:382,0
DA:383,0
DA:384,0
DA:385,0
DA:386,0
DA:387,0
DA:388,0
DA:389,0
DA:390,0
DA:391,0
DA:392,0
DA:393,0
DA:397,0
DA:399,0
DA:400,0
DA:402,0
DA:405,0
DA:406,0
DA:407,0
DA:408,0
DA:409,0
DA:411,0
DA:412,0
DA:415,0
DA:416,0
DA:417,0
DA:418,0
DA:419,0
DA:420,0
DA:421,0
DA:422,0
DA:424,0
DA:425,0
DA:427,0
DA:428,0
DA:429,0
DA:430,0
DA:431,0
DA:432,0
DA:434,0
DA:436,0
DA:439,0
DA:440,0
BRF:0
BRH:0
LF:255
LH:0
end_of_record
SF:/Users/a.gerasimchuk/Documents/git/pjs/crates/pjs-core/src/domain/events/mod.rs
FN:270,_RNvMs0_NtNtCskc4teZ54Auy_8pjson_rs6domain6eventsNtB5_18InMemoryEventStore10all_events
FN:274,_RNvMs0_NtNtCskc4teZ54Auy_8pjson_rs6domain6eventsNtB5_18InMemoryEventStore11event_count
FN:266,_RNvMs0_NtNtCskc4teZ54Auy_8pjson_rs6domain6eventsNtB5_18InMemoryEventStore3new
FN:409,_RNvMs2_NtNtCskc4teZ54Auy_8pjson_rs6domain6eventsNtB5_7EventId3new
FN:419,_RNvMs2_NtNtCskc4teZ54Auy_8pjson_rs6domain6eventsNtB5_7EventId5inner
FN:414,_RNvMs2_NtNtCskc4teZ54Auy_8pjson_rs6domain6eventsNtB5_7EventId9from_uuid
FN:466,_RNvMs5_NtNtCskc4teZ54Auy_8pjson_rs6domain6eventsNtB5_11DomainEvent11occurred_at
FN:487,_RNvMs5_NtNtCskc4teZ54Auy_8pjson_rs6domain6eventsNtB5_11DomainEvent7payload
FN:446,_RNvMs5_NtNtCskc4teZ54Auy_8pjson_rs6domain6eventsNtB5_11DomainEvent8event_id
FN:203,_RNvMs_NtNtCskc4teZ54Auy_8pjson_rs6domain6eventsNtB4_11DomainEvent10event_type
FN:148,_RNvMs_NtNtCskc4teZ54Auy_8pjson_rs6domain6eventsNtB4_11DomainEvent10session_id
FN:223,_RNvMs_NtNtCskc4teZ54Auy_8pjson_rs6domain6eventsNtB4_11DomainEvent11is_critical
FN:236,_RNvMs_NtNtCskc4teZ54Auy_8pjson_rs6domain6eventsNtB4_11DomainEvent13is_completion
FN:231,_RNvMs_NtNtCskc4teZ54Auy_8pjson_rs6domain6eventsNtB4_11DomainEvent8is_error
FN:168,_RNvMs_NtNtCskc4teZ54Auy_8pjson_rs6domain6eventsNtB4_11DomainEvent9stream_id
FN:183,_RNvMs_NtNtCskc4teZ54Auy_8pjson_rs6domain6eventsNtB4_11DomainEvent9timestamp
FN:135,_RNvXNtNtCskc4teZ54Auy_8pjson_rs6domain6eventsNtB2_20PriorityDistributionNtNtCsd2KPTObkMr_4core7default7Default7default
FN:280,_RNvXs1_NtNtCskc4teZ54Auy_8pjson_rs6domain6eventsNtB5_18InMemoryEventStoreNtB5_10EventStore13append_events
FN:303,_RNvXs1_NtNtCskc4teZ54Auy_8pjson_rs6domain6eventsNtB5_18InMemoryEventStoreNtB5_10EventStore16get_events_since
FN:294,_RNvXs1_NtNtCskc4teZ54Auy_8pjson_rs6domain6eventsNtB5_18InMemoryEventStoreNtB5_10EventStore21get_events_for_stream
FN:285,_RNvXs1_NtNtCskc4teZ54Auy_8pjson_rs6domain6eventsNtB5_18InMemoryEventStoreNtB5_10EventStore22get_events_for_session
FN:425,_RNvXs3_NtNtCskc4teZ54Auy_8pjson_rs6domain6eventsNtB5_7EventIdNtNtCsd2KPTObkMr_4core3fmt7Display3fmt
FN:431,_RNvXs4_NtNtCskc4teZ54Auy_8pjson_rs6domain6eventsNtB5_7EventIdNtNtCsd2KPTObkMr_4core7default7Default7default
FN:491,_RNCNvNvMs5_NtNtCskc4teZ54Auy_8pjson_rs6domain6eventsNtB9_11DomainEvent7payload5EMPTY0Bd_
FN:307,_RNCNvXs1_NtNtCskc4teZ54Auy_8pjson_rs6domain6eventsNtB7_18InMemoryEventStoreNtB7_10EventStore16get_events_since0Bb_
FN:298,_RNCNvXs1_NtNtCskc4teZ54Auy_8pjson_rs6domain6eventsNtB7_18InMemoryEventStoreNtB7_10EventStore21get_events_for_stream0Bb_
FN:289,_RNCNvXs1_NtNtCskc4teZ54Auy_8pjson_rs6domain6eventsNtB7_18InMemoryEventStoreNtB7_10EventStore22get_events_for_session0Bb_
FNDA:0,_RNvMs0_NtNtCskc4teZ54Auy_8pjson_rs6domain6eventsNtB5_18InMemoryEventStore10all_events
FNDA:0,_RNvMs0_NtNtCskc4teZ54Auy_8pjson_rs6domain6eventsNtB5_18InMemoryEventStore11event_count
FNDA:0,_RNvMs0_NtNtCskc4teZ54Auy_8pjson_rs6domain6eventsNtB5_18InMemoryEventStore3new
FNDA:0,_RNvMs2_NtNtCskc4teZ54Auy_8pjson_rs6domain6eventsNtB5_7EventId3new
FNDA:0,_RNvMs2_NtNtCskc4teZ54Auy_8pjson_rs6domain6eventsNtB5_7EventId5inner
FNDA:0,_RNvMs2_NtNtCskc4teZ54Auy_8pjson_rs6domain6eventsNtB5_7EventId9from_uuid
FNDA:0,_RNvMs5_NtNtCskc4teZ54Auy_8pjson_rs6domain6eventsNtB5_11DomainEvent11occurred_at
FNDA:0,_RNvMs5_NtNtCskc4teZ54Auy_8pjson_rs6domain6eventsNtB5_11DomainEvent7payload
FNDA:0,_RNvMs5_NtNtCskc4teZ54Auy_8pjson_rs6domain6eventsNtB5_11DomainEvent8event_id
FNDA:0,_RNvMs_NtNtCskc4teZ54Auy_8pjson_rs6domain6eventsNtB4_11DomainEvent10event_type
FNDA:0,_RNvMs_NtNtCskc4teZ54Auy_8pjson_rs6domain6eventsNtB4_11DomainEvent10session_id
FNDA:0,_RNvMs_NtNtCskc4teZ54Auy_8pjson_rs6domain6eventsNtB4_11DomainEvent11is_critical
FNDA:0,_RNvMs_NtNtCskc4teZ54Auy_8pjson_rs6domain6eventsNtB4_11DomainEvent13is_completion
FNDA:0,_RNvMs_NtNtCskc4teZ54Auy_8pjson_rs6domain6eventsNtB4_11DomainEvent8is_error
FNDA:0,_RNvMs_NtNtCskc4teZ54Auy_8pjson_rs6domain6eventsNtB4_11DomainEvent9stream_id
FNDA:0,_RNvMs_NtNtCskc4teZ54Auy_8pjson_rs6domain6eventsNtB4_11DomainEvent9timestamp
FNDA:0,_RNvXNtNtCskc4teZ54Auy_8pjson_rs6domain6eventsNtB2_20PriorityDistributionNtNtCsd2KPTObkMr_4core7default7Default7default
FNDA:0,_RNvXs1_NtNtCskc4teZ54Auy_8pjson_rs6domain6eventsNtB5_18InMemoryEventStoreNtB5_10EventStore13append_events
FNDA:0,_RNvXs1_NtNtCskc4teZ54Auy_8pjson_rs6domain6eventsNtB5_18InMemoryEventStoreNtB5_10EventStore16get_events_since
FNDA:0,_RNvXs1_NtNtCskc4teZ54Auy_8pjson_rs6domain6eventsNtB5_18InMemoryEventStoreNtB5_10EventStore21get_events_for_stream
FNDA:0,_RNvXs1_NtNtCskc4teZ54Auy_8pjson_rs6domain6eventsNtB5_18InMemoryEventStoreNtB5_10EventStore22get_events_for_session
FNDA:0,_RNvXs3_NtNtCskc4teZ54Auy_8pjson_rs6domain6eventsNtB5_7EventIdNtNtCsd2KPTObkMr_4core3fmt7Display3fmt
FNDA:0,_RNvXs4_NtNtCskc4teZ54Auy_8pjson_rs6domain6eventsNtB5_7EventIdNtNtCsd2KPTObkMr_4core7default7Default7default
FNDA:0,_RNCNvNvMs5_NtNtCskc4teZ54Auy_8pjson_rs6domain6eventsNtB9_11DomainEvent7payload5EMPTY0Bd_
FNDA:0,_RNCNvXs1_NtNtCskc4teZ54Auy_8pjson_rs6domain6eventsNtB7_18InMemoryEventStoreNtB7_10EventStore16get_events_since0Bb_
FNDA:0,_RNCNvXs1_NtNtCskc4teZ54Auy_8pjson_rs6domain6eventsNtB7_18InMemoryEventStoreNtB7_10EventStore21get_events_for_stream0Bb_
FNDA:0,_RNCNvXs1_NtNtCskc4teZ54Auy_8pjson_rs6domain6eventsNtB7_18InMemoryEventStoreNtB7_10EventStore22get_events_for_session0Bb_
FNF:27
FNH:0
DA:135,0
DA:136,0
DA:137,0
DA:138,0
DA:139,0
DA:140,0
DA:141,0
DA:142,0
DA:143,0
DA:148,0
DA:149,0
DA:150,0
DA:151,0
DA:152,0
DA:153,0
DA:154,0
DA:155,0
DA:156,0
DA:157,0
DA:158,0
DA:159,0
DA:160,0
DA:161,0
DA:162,0
DA:163,0
DA:165,0
DA:168,0
DA:169,0
DA:170,0
DA:171,0
DA:172,0
DA:173,0
DA:174,0
DA:175,0
DA:176,0
DA:177,0
DA:178,0
DA:180,0
DA:183,0
DA:184,0
DA:185,0
DA:186,0
DA:187,0
DA:188,0
DA:189,0
DA:190,0
DA:191,0
DA:192,0
DA:193,0
DA:194,0
DA:195,0
DA:196,0
DA:197,0
DA:198,0
DA:200,0
DA:203,0
DA:204,0
DA:205,0
DA:206,0
DA:207,0
DA:208,0
DA:209,0
DA:210,0
DA:211,0
DA:212,0
DA:213,0
DA:214,0
DA:215,0
DA:216,0
DA:217,0
DA:218,0
DA:220,0
DA:223,0
DA:224,0
DA:225,0
DA:228,0
DA:231,0
DA:232,0
DA:233,0
DA:236,0
DA:237,0
DA:238,0
DA:241,0
DA:266,0
DA:267,0
DA:268,0
DA:270,0
DA:271,0
DA:272,0
DA:274,0
DA:275,0
DA:276,0
DA:280,0
DA:281,0
DA:282,0
DA:283,0
DA:285,0
DA:286,0
DA:287,0
DA:288,0
DA:289,0
DA:290,0
DA:291,0
DA:292,0
DA:294,0
DA:295,0
DA:296,0
DA:297,0
DA:298,0
DA:299,0
DA:300,0
DA:301,0
DA:303,0
DA:304,0
DA:305,0
DA:306,0
DA:307,0
DA:308,0
DA:309,0
DA:310,0
DA:409,0
DA:410,0
DA:411,0
DA:414,0
DA:415,0
DA:416,0
DA:419,0
DA:420,0
DA:421,0
DA:425,0
DA:426,0
DA:427,0
DA:431,0
DA:432,0
DA:433,0
DA:446,0
DA:449,0
DA:452,0
DA:453,0
DA:454,0
DA:455,0
DA:456,0
DA:457,0
DA:458,0
DA:459,0
DA:460,0
DA:461,0
DA:462,0
DA:463,0
DA:466,0
DA:467,0
DA:468,0
DA:469,0
DA:470,0
DA:471,0
DA:472,0
DA:473,0
DA:474,0
DA:475,0
DA:476,0
DA:477,0
DA:478,0
DA:479,0
DA:480,0
DA:481,0
DA:483,0
DA:487,0
DA:491,0
DA:492,0
DA:493,0
DA:494,0
DA:495,0
BRF:0
BRH:0
LF:175
LH:0
end_of_record
SF:/Users/a.gerasimchuk/Documents/git/pjs/crates/pjs-core/src/domain/mod.rs
FN:72,_RNvMNtCskc4teZ54Auy_8pjson_rs6domainNtB2_11DomainError18invalid_transition
FN:78,_RNvXs_NtCskc4teZ54Auy_8pjson_rs6domainNtB4_11DomainErrorINtNtCsd2KPTObkMr_4core7convert4FromNtNtCs7fnLZwG9eJV_5alloc6string6StringE4from
FN:68,_RINvMNtCskc4teZ54Auy_8pjson_rs6domainNtB3_11DomainError19invariant_violationpEB5_
FNDA:0,_RNvMNtCskc4teZ54Auy_8pjson_rs6domainNtB2_11DomainError18invalid_transition
FNDA:0,_RNvXs_NtCskc4teZ54Auy_8pjson_rs6domainNtB4_11DomainErrorINtNtCsd2KPTObkMr_4core7convert4FromNtNtCs7fnLZwG9eJV_5alloc6string6StringE4from
FNDA:0,_RINvMNtCskc4teZ54Auy_8pjson_rs6domainNtB3_11DomainError19invariant_violationpEB5_
FNF:3
FNH:0
DA:68,0
DA:69,0
DA:70,0
DA:72,0
DA:73,0
DA:74,0
DA:78,0
DA:79,0
DA:80,0
BRF:0
BRH:0
LF:9
LH:0
end_of_record
SF:/Users/a.gerasimchuk/Documents/git/pjs/crates/pjs-core/src/domain/ports/mod.rs
FN:32,_RNCNvYpNtNtNtCskc4teZ54Auy_8pjson_rs6domain5ports9FrameSink11send_frames0Bb_
FN:122,_RNvYpNtNtNtCskc4teZ54Auy_8pjson_rs6domain5ports12TimeProvider10now_millisB9_
FN:32,_RNvYpNtNtNtCskc4teZ54Auy_8pjson_rs6domain5ports9FrameSink11send_framesB9_
FNDA:0,_RNCNvYpNtNtNtCskc4teZ54Auy_8pjson_rs6domain5ports9FrameSink11send_frames0Bb_
FNDA:0,_RNvYpNtNtNtCskc4teZ54Auy_8pjson_rs6domain5ports12TimeProvider10now_millisB9_
FNDA:0,_RNvYpNtNtNtCskc4teZ54Auy_8pjson_rs6domain5ports9FrameSink11send_framesB9_
FNF:2
FNH:0
DA:32,0
DA:33,0
DA:34,0
DA:36,0
DA:37,0
DA:122,0
DA:123,0
DA:124,0
BRF:0
BRH:0
LF:8
LH:0
end_of_record
SF:/Users/a.gerasimchuk/Documents/git/pjs/crates/pjs-core/src/domain/services/connection_manager.rs
FN:182,_RNCNCNvMNtNtNtCskc4teZ54Auy_8pjson_rs6domain8services18connection_managerNtB6_17ConnectionManager14check_timeouts00Bc_
FN:185,_RNCNCNvMNtNtNtCskc4teZ54Auy_8pjson_rs6domain8services18connection_managerNtB6_17ConnectionManager14check_timeouts0s_0Bc_
FN:114,_RNCNvMNtNtNtCskc4teZ54Auy_8pjson_rs6domain8services18connection_managerNtB4_17ConnectionManager10set_stream0Ba_
FN:176,_RNCNvMNtNtNtCskc4teZ54Auy_8pjson_rs6domain8services18connection_managerNtB4_17ConnectionManager14check_timeouts0Ba_
FN:160,_RNCNvMNtNtNtCskc4teZ54Auy_8pjson_rs6domain8services18connection_managerNtB4_17ConnectionManager14get_connection0Ba_
FN:200,_RNCNvMNtNtNtCskc4teZ54Auy_8pjson_rs6domain8services18connection_managerNtB4_17ConnectionManager14get_statistics0Ba_
FN:92,_RNCNvMNtNtNtCskc4teZ54Auy_8pjson_rs6domain8services18connection_managerNtB4_17ConnectionManager14update_metrics0Ba_
FN:71,_RNCNvMNtNtNtCskc4teZ54Auy_8pjson_rs6domain8services18connection_managerNtB4_17ConnectionManager15update_activity0Ba_
FN:131,_RNCNvMNtNtNtCskc4teZ54Auy_8pjson_rs6domain8services18connection_managerNtB4_17ConnectionManager16close_connection0Ba_
FN:190,_RNCNvMNtNtNtCskc4teZ54Auy_8pjson_rs6domain8services18connection_managerNtB4_17ConnectionManager16process_timeouts0Ba_
FN:147,_RNCNvMNtNtNtCskc4teZ54Auy_8pjson_rs6domain8services18connection_managerNtB4_17ConnectionManager17remove_connection0Ba_
FN:47,_RNCNvMNtNtNtCskc4teZ54Auy_8pjson_rs6domain8services18connection_managerNtB4_17ConnectionManager19register_connection0Ba_
FN:166,_RNCNvMNtNtNtCskc4teZ54Auy_8pjson_rs6domain8services18connection_managerNtB4_17ConnectionManager22get_active_connections0Ba_
FNDA:0,_RNCNCNvMNtNtNtCskc4teZ54Auy_8pjson_rs6domain8services18connection_managerNtB6_17ConnectionManager14check_timeouts00Bc_
FNDA:0,_RNCNCNvMNtNtNtCskc4teZ54Auy_8pjson_rs6domain8services18connection_managerNtB6_17ConnectionManager14check_timeouts0s_0Bc_
FNDA:0,_RNCNvMNtNtNtCskc4teZ54Auy_8pjson_rs6domain8services18connection_managerNtB4_17ConnectionManager10set_stream0Ba_
FNDA:0,_RNCNvMNtNtNtCskc4teZ54Auy_8pjson_rs6domain8services18connection_managerNtB4_17ConnectionManager14check_timeouts0Ba_
FNDA:0,_RNCNvMNtNtNtCskc4teZ54Auy_8pjson_rs6domain8services18connection_managerNtB4_17ConnectionManager14get_connection0Ba_
FNDA:0,_RNCNvMNtNtNtCskc4teZ54Auy_8pjson_rs6domain8services18connection_managerNtB4_17ConnectionManager14get_statistics0Ba_
FNDA:0,_RNCNvMNtNtNtCskc4teZ54Auy_8pjson_rs6domain8services18connection_managerNtB4_17ConnectionManager14update_metrics0Ba_
FNDA:0,_RNCNvMNtNtNtCskc4teZ54Auy_8pjson_rs6domain8services18connection_managerNtB4_17ConnectionManager15update_activity0Ba_
FNDA:0,_RNCNvMNtNtNtCskc4teZ54Auy_8pjson_rs6domain8services18connection_managerNtB4_17ConnectionManager16close_connection0Ba_
FNDA:0,_RNCNvMNtNtNtCskc4teZ54Auy_8pjson_rs6domain8services18connection_managerNtB4_17ConnectionManager16process_timeouts0Ba_
FNDA:0,_RNCNvMNtNtNtCskc4teZ54Auy_8pjson_rs6domain8services18connection_managerNtB4_17ConnectionManager17remove_connection0Ba_
FNDA:0,_RNCNvMNtNtNtCskc4teZ54Auy_8pjson_rs6domain8services18connection_managerNtB4_17ConnectionManager19register_connection0Ba_
FNDA:0,_RNCNvMNtNtNtCskc4teZ54Auy_8pjson_rs6domain8services18connection_managerNtB4_17ConnectionManager22get_active_connections0Ba_
FNF:13
FNH:0
DA:47,0
DA:48,0
DA:50,0
DA:51,0
DA:52,0
DA:53,0
DA:54,0
DA:56,0
DA:57,0
DA:58,0
DA:59,0
DA:60,0
DA:61,0
DA:62,0
DA:63,0
DA:64,0
DA:66,0
DA:67,0
DA:68,0
DA:71,0
DA:72,0
DA:74,0
DA:75,0
DA:76,0
DA:77,0
DA:79,0
DA:80,0
DA:81,0
DA:82,0
DA:84,0
DA:92,0
DA:93,0
DA:95,0
DA:96,0
DA:97,0
DA:98,0
DA:99,0
DA:100,0
DA:102,0
DA:103,0
DA:104,0
DA:105,0
DA:107,0
DA:114,0
DA:115,0
DA:117,0
DA:118,0
DA:119,0
DA:120,0
DA:121,0
DA:123,0
DA:124,0
DA:125,0
DA:126,0
DA:128,0
DA:131,0
DA:132,0
DA:134,0
DA:135,0
DA:136,0
DA:137,0
DA:139,0
DA:140,0
DA:141,0
DA:142,0
DA:144,0
DA:147,0
DA:148,0
DA:150,0
DA:151,0
DA:152,0
DA:153,0
DA:154,0
DA:155,0
DA:157,0
DA:160,0
DA:161,0
DA:162,0
DA:163,0
DA:166,0
DA:167,0
DA:168,0
DA:169,0
DA:170,0
DA:171,0
DA:172,0
DA:173,0
DA:176,0
DA:177,0
DA:178,0
DA:180,0
DA:181,0
DA:182,0
DA:183,0
DA:184,0
DA:185,0
DA:186,0
DA:187,0
DA:190,0
DA:191,0
DA:192,0
DA:193,0
DA:194,0
DA:195,0
DA:197,0
DA:200,0
DA:201,0
DA:203,0
DA:204,0
DA:205,0
DA:207,0
DA:208,0
DA:209,0
DA:210,0
DA:211,0
DA:212,0
DA:213,0
DA:214,0
BRF:0
BRH:0
LF:120
LH:0
end_of_record
SF:/Users/a.gerasimchuk/Documents/git/pjs/crates/pjs-core/src/domain/value_objects/json_path.rs
FN:26,_RNvMNtNtNtCskc4teZ54Auy_8pjson_rs6domain13value_objects9json_pathNtB2_8JsonPath10append_key
FN:48,_RNvMNtNtNtCskc4teZ54Auy_8pjson_rs6domain13value_objects9json_pathNtB2_8JsonPath12append_index
FN:151,_RNvMNtNtNtCskc4teZ54Auy_8pjson_rs6domain13value_objects9json_pathNtB2_8JsonPath12is_prefix_of
FN:87,_RNvMNtNtNtCskc4teZ54Auy_8pjson_rs6domain13value_objects9json_pathNtB2_8JsonPath12last_segment
FN:20,_RNvMNtNtNtCskc4teZ54Auy_8pjson_rs6domain13value_objects9json_pathNtB2_8JsonPath4root
FN:123,_RNvMNtNtNtCskc4teZ54Auy_8pjson_rs6domain13value_objects9json_pathNtB2_8JsonPath5depth
FN:55,_RNvMNtNtNtCskc4teZ54Auy_8pjson_rs6domain13value_objects9json_pathNtB2_8JsonPath6as_str
FN:60,_RNvMNtNtNtCskc4teZ54Auy_8pjson_rs6domain13value_objects9json_pathNtB2_8JsonPath6parent
FN:162,_RNvMNtNtNtCskc4teZ54Auy_8pjson_rs6domain13value_objects9json_pathNtB2_8JsonPath8validate
FN:258,_RNvXs0_NtNtNtCskc4teZ54Auy_8pjson_rs6domain13value_objects9json_pathNtB5_11PathSegmentNtNtCsd2KPTObkMr_4core3fmt7Display3fmt
FN:252,_RNvXs_NtNtNtCskc4teZ54Auy_8pjson_rs6domain13value_objects9json_pathNtB4_8JsonPathNtNtCsd2KPTObkMr_4core3fmt7Display3fmt
FN:200,_RNCNvMNtNtNtCskc4teZ54Auy_8pjson_rs6domain13value_objects9json_pathNtB4_8JsonPath8validate0Ba_
FN:13,_RINvMNtNtNtCskc4teZ54Auy_8pjson_rs6domain13value_objects9json_pathNtB3_8JsonPath3newpEB9_
FNDA:0,_RNvMNtNtNtCskc4teZ54Auy_8pjson_rs6domain13value_objects9json_pathNtB2_8JsonPath10append_key
FNDA:0,_RNvMNtNtNtCskc4teZ54Auy_8pjson_rs6domain13value_objects9json_pathNtB2_8JsonPath12append_index
FNDA:0,_RNvMNtNtNtCskc4teZ54Auy_8pjson_rs6domain13value_objects9json_pathNtB2_8JsonPath12is_prefix_of
FNDA:0,_RNvMNtNtNtCskc4teZ54Auy_8pjson_rs6domain13value_objects9json_pathNtB2_8JsonPath12last_segment
FNDA:0,_RNvMNtNtNtCskc4teZ54Auy_8pjson_rs6domain13value_objects9json_pathNtB2_8JsonPath4root
FNDA:0,_RNvMNtNtNtCskc4teZ54Auy_8pjson_rs6domain13value_objects9json_pathNtB2_8JsonPath5depth
FNDA:0,_RNvMNtNtNtCskc4teZ54Auy_8pjson_rs6domain13value_objects9json_pathNtB2_8JsonPath6as_str
FNDA:0,_RNvMNtNtNtCskc4teZ54Auy_8pjson_rs6domain13value_objects9json_pathNtB2_8JsonPath6parent
FNDA:0,_RNvMNtNtNtCskc4teZ54Auy_8pjson_rs6domain13value_objects9json_pathNtB2_8JsonPath8validate
FNDA:0,_RNvXs0_NtNtNtCskc4teZ54Auy_8pjson_rs6domain13value_objects9json_pathNtB5_11PathSegmentNtNtCsd2KPTObkMr_4core3fmt7Display3fmt
FNDA:0,_RNvXs_NtNtNtCskc4teZ54Auy_8pjson_rs6domain13value_objects9json_pathNtB4_8JsonPathNtNtCsd2KPTObkMr_4core3fmt7Display3fmt
FNDA:0,_RNCNvMNtNtNtCskc4teZ54Auy_8pjson_rs6domain13value_objects9json_pathNtB4_8JsonPath8validate0Ba_
FNDA:0,_RINvMNtNtNtCskc4teZ54Auy_8pjson_rs6domain13value_objects9json_pathNtB3_8JsonPath3newpEB9_
FNF:13
FNH:0
DA:13,0
DA:14,0
DA:15,0
DA:16,0
DA:17,0
DA:20,0
DA:22,0
DA:23,0
DA:26,0
DA:27,0
DA:28,0
DA:29,0
DA:31,0
DA:32,0
DA:33,0
DA:34,0
DA:35,0
DA:36,0
DA:38,0
DA:39,0
DA:41,0
DA:44,0
DA:45,0
DA:48,0
DA:49,0
DA:51,0
DA:52,0
DA:55,0
DA:56,0
DA:57,0
DA:60,0
DA:61,0
DA:62,0
DA:63,0
DA:66,0
DA:67,0
DA:69,0
DA:71,0
DA:73,0
DA:76,0
DA:77,0
DA:78,0
DA:79,0
DA:80,0
DA:83,0
DA:84,0
DA:87,0
DA:88,0
DA:89,0
DA:90,0
DA:93,0
DA:94,0
DA:95,0
DA:96,0
DA:97,0
DA:98,0
DA:99,0
DA:100,0
DA:101,0
DA:102,0
DA:105,0
DA:106,0
DA:108,0
DA:109,0
DA:111,0
DA:114,0
DA:115,0
DA:116,0
DA:117,0
DA:119,0
DA:120,0
DA:123,0
DA:124,0
DA:125,0
DA:126,0
DA:128,0
DA:129,0
DA:131,0
DA:132,0
DA:133,0
DA:136,0
DA:137,0
DA:138,0
DA:139,0
DA:141,0
DA:143,0
DA:147,0
DA:148,0
DA:151,0
DA:152,0
DA:153,0
DA:154,0
DA:156,0
DA:157,0
DA:158,0
DA:159,0
DA:162,0
DA:163,0
DA:164,0
DA:165,0
DA:167,0
DA:168,0
DA:169,0
DA:170,0
DA:171,0
DA:173,0
DA:174,0
DA:175,0
DA:178,0
DA:180,0
DA:181,0
DA:184,0
DA:186,0
DA:187,0
DA:188,0
DA:189,0
DA:190,0
DA:193,0
DA:194,0
DA:195,0
DA:198,0
DA:199,0
DA:200,0
DA:202,0
DA:203,0
DA:204,0
DA:205,0
DA:206,0
DA:210,0
DA:212,0
DA:213,0
DA:214,0
DA:215,0
DA:216,0
DA:219,0
DA:220,0
DA:221,0
DA:223,0
DA:224,0
DA:225,0
DA:226,0
DA:227,0
DA:228,0
DA:231,0
DA:232,0
DA:233,0
DA:234,0
DA:239,0
DA:240,0
DA:252,0
DA:253,0
DA:254,0
DA:258,0
DA:259,0
DA:260,0
DA:261,0
DA:262,0
DA:264,0
BRF:0
BRH:0
LF:159
LH:0
end_of_record
SF:/Users/a.gerasimchuk/Documents/git/pjs/crates/pjs-core/src/domain/value_objects/priority.rs
FN:35,_RNCNvMNtNtNtCskc4teZ54Auy_8pjson_rs6domain13value_objects8priorityNtB4_8Priority3new0Ba_
FN:56,_RNvMNtNtNtCskc4teZ54Auy_8pjson_rs6domain13value_objects8priorityNtB2_8Priority11decrease_by
FN:50,_RNvMNtNtNtCskc4teZ54Auy_8pjson_rs6domain13value_objects8priorityNtB2_8Priority11increase_by
FN:62,_RNvMNtNtNtCskc4teZ54Auy_8pjson_rs6domain13value_objects8priorityNtB2_8Priority11is_critical
FN:39,_RNvMNtNtNtCskc4teZ54Auy_8pjson_rs6domain13value_objects8priorityNtB2_8Priority13new_unchecked
FN:85,_RNvMNtNtNtCskc4teZ54Auy_8pjson_rs6domain13value_objects8priorityNtB2_8Priority13to_percentage
FN:72,_RNvMNtNtNtCskc4teZ54Auy_8pjson_rs6domain13value_objects8priorityNtB2_8Priority15from_percentage
FN:67,_RNvMNtNtNtCskc4teZ54Auy_8pjson_rs6domain13value_objects8priorityNtB2_8Priority16is_high_or_above
FN:32,_RNvMNtNtNtCskc4teZ54Auy_8pjson_rs6domain13value_objects8priorityNtB2_8Priority3new
FN:45,_RNvMNtNtNtCskc4teZ54Auy_8pjson_rs6domain13value_objects8priorityNtB2_8Priority5value
FN:160,_RNvMs4_NtNtNtCskc4teZ54Auy_8pjson_rs6domain13value_objects8priorityNtB5_13PriorityRules3new
FN:104,_RNvXs0_NtNtNtCskc4teZ54Auy_8pjson_rs6domain13value_objects8priorityhINtNtCsd2KPTObkMr_4core7convert4FromNtB5_8PriorityE4from
FN:112,_RNvXs1_NtNtNtCskc4teZ54Auy_8pjson_rs6domain13value_objects8priorityNtB5_8PriorityINtNtCsd2KPTObkMr_4core7convert7TryFromhE8try_from
FN:132,_RNvXs2_NtNtNtCskc4teZ54Auy_8pjson_rs6domain13value_objects8priorityNtB5_15MinimumPriorityNtB5_12PriorityRule4name
FN:128,_RNvXs2_NtNtNtCskc4teZ54Auy_8pjson_rs6domain13value_objects8priorityNtB5_15MinimumPriorityNtB5_12PriorityRule8validate
FN:149,_RNvXs3_NtNtNtCskc4teZ54Auy_8pjson_rs6domain13value_objects8priorityNtB5_13PriorityRangeNtB5_12PriorityRule4name
FN:145,_RNvXs3_NtNtNtCskc4teZ54Auy_8pjson_rs6domain13value_objects8priorityNtB5_13PriorityRangeNtB5_12PriorityRule8validate
FN:184,_RNvXs5_NtNtNtCskc4teZ54Auy_8pjson_rs6domain13value_objects8priorityNtB5_13PriorityRulesNtNtCsd2KPTObkMr_4core7default7Default7default
FN:91,_RNvXs_NtNtNtCskc4teZ54Auy_8pjson_rs6domain13value_objects8priorityNtB4_8PriorityNtNtCsd2KPTObkMr_4core3fmt7Display3fmt
FN:164,_RINvMs4_NtNtNtCskc4teZ54Auy_8pjson_rs6domain13value_objects8priorityNtB6_13PriorityRules8add_rulepEBc_
FN:169,_RNvMs4_NtNtNtCskc4teZ54Auy_8pjson_rs6domain13value_objects8priorityNtB5_13PriorityRules8validate
FNDA:0,_RNCNvMNtNtNtCskc4teZ54Auy_8pjson_rs6domain13value_objects8priorityNtB4_8Priority3new0Ba_
FNDA:0,_RNvMNtNtNtCskc4teZ54Auy_8pjson_rs6domain13value_objects8priorityNtB2_8Priority11decrease_by
FNDA:0,_RNvMNtNtNtCskc4teZ54Auy_8pjson_rs6domain13value_objects8priorityNtB2_8Priority11increase_by
FNDA:0,_RNvMNtNtNtCskc4teZ54Auy_8pjson_rs6domain13value_objects8priorityNtB2_8Priority11is_critical
FNDA:0,_RNvMNtNtNtCskc4teZ54Auy_8pjson_rs6domain13value_objects8priorityNtB2_8Priority13new_unchecked
FNDA:0,_RNvMNtNtNtCskc4teZ54Auy_8pjson_rs6domain13value_objects8priorityNtB2_8Priority13to_percentage
FNDA:0,_RNvMNtNtNtCskc4teZ54Auy_8pjson_rs6domain13value_objects8priorityNtB2_8Priority15from_percentage
FNDA:0,_RNvMNtNtNtCskc4teZ54Auy_8pjson_rs6domain13value_objects8priorityNtB2_8Priority16is_high_or_above
FNDA:0,_RNvMNtNtNtCskc4teZ54Auy_8pjson_rs6domain13value_objects8priorityNtB2_8Priority3new
FNDA:2,_RNvMNtNtNtCskc4teZ54Auy_8pjson_rs6domain13value_objects8priorityNtB2_8Priority5value
FNDA:0,_RNvMs4_NtNtNtCskc4teZ54Auy_8pjson_rs6domain13value_objects8priorityNtB5_13PriorityRules3new
FNDA:0,_RNvXs0_NtNtNtCskc4teZ54Auy_8pjson_rs6domain13value_objects8priorityhINtNtCsd2KPTObkMr_4core7convert4FromNtB5_8PriorityE4from
FNDA:0,_RNvXs1_NtNtNtCskc4teZ54Auy_8pjson_rs6domain13value_objects8priorityNtB5_8PriorityINtNtCsd2KPTObkMr_4core7convert7TryFromhE8try_from
FNDA:0,_RNvXs2_NtNtNtCskc4teZ54Auy_8pjson_rs6domain13value_objects8priorityNtB5_15MinimumPriorityNtB5_12PriorityRule4name
FNDA:0,_RNvXs2_NtNtNtCskc4teZ54Auy_8pjson_rs6domain13value_objects8priorityNtB5_15MinimumPriorityNtB5_12PriorityRule8validate
FNDA:0,_RNvXs3_NtNtNtCskc4teZ54Auy_8pjson_rs6domain13value_objects8priorityNtB5_13PriorityRangeNtB5_12PriorityRule4name
FNDA:0,_RNvXs3_NtNtNtCskc4teZ54Auy_8pjson_rs6domain13value_objects8priorityNtB5_13PriorityRangeNtB5_12PriorityRule8validate
FNDA:0,_RNvXs5_NtNtNtCskc4teZ54Auy_8pjson_rs6domain13value_objects8priorityNtB5_13PriorityRulesNtNtCsd2KPTObkMr_4core7default7Default7default
FNDA:0,_RNvXs_NtNtNtCskc4teZ54Auy_8pjson_rs6domain13value_objects8priorityNtB4_8PriorityNtNtCsd2KPTObkMr_4core3fmt7Display3fmt
FNDA:0,_RINvMs4_NtNtNtCskc4teZ54Auy_8pjson_rs6domain13value_objects8priorityNtB6_13PriorityRules8add_rulepEBc_
FNDA:0,_RNvMs4_NtNtNtCskc4teZ54Auy_8pjson_rs6domain13value_objects8priorityNtB5_13PriorityRules8validate
FNF:21
FNH:1
DA:32,0
DA:33,0
DA:34,0
DA:35,0
DA:36,0
DA:39,0
DA:41,0
DA:42,0
DA:45,2
DA:46,2
DA:47,2
DA:50,0
DA:51,0
DA:52,0
DA:53,0
DA:56,0
DA:57,0
DA:58,0
DA:59,0
DA:62,0
DA:63,0
DA:64,0
DA:67,0
DA:68,0
DA:69,0
DA:72,0
DA:73,0
DA:74,0
DA:75,0
DA:76,0
DA:77,0
DA:78,0
DA:80,0
DA:81,0
DA:82,0
DA:85,0
DA:86,0
DA:87,0
DA:91,0
DA:92,0
DA:93,0
DA:94,0
DA:95,0
DA:96,0
DA:97,0
DA:98,0
DA:100,0
DA:104,0
DA:105,0
DA:106,0
DA:112,0
DA:113,0
DA:114,0
DA:128,0
DA:129,0
DA:130,0
DA:132,0
DA:133,0
DA:134,0
DA:145,0
DA:146,0
DA:147,0
DA:149,0
DA:150,0
DA:151,0
DA:160,0
DA:161,0
DA:162,0
DA:164,0
DA:165,0
DA:166,0
DA:167,0
DA:169,0
DA:170,0
DA:171,0
DA:172,0
DA:173,0
DA:174,0
DA:175,0
DA:176,0
DA:177,0
DA:179,0
DA:180,0
DA:184,0
DA:185,0
DA:186,0
BRF:0
BRH:0
LF:87
LH:3
end_of_record
SF:/Users/a.gerasimchuk/Documents/git/pjs/crates/pjs-core/src/domain/value_objects/session_id.rs
FN:57,_RNvXs2_NtNtNtCskc4teZ54Auy_8pjson_rs6domain13value_objects10session_idNtCsawi9uOspaqo_4uuid4UuidINtNtCsd2KPTObkMr_4core7convert4FromNtB5_9SessionIdE4from
FN:23,_RNvMNtNtNtCskc4teZ54Auy_8pjson_rs6domain13value_objects10session_idNtB2_9SessionId11from_string
FN:13,_RNvMNtNtNtCskc4teZ54Auy_8pjson_rs6domain13value_objects10session_idNtB2_9SessionId3new
FN:33,_RNvMNtNtNtCskc4teZ54Auy_8pjson_rs6domain13value_objects10session_idNtB2_9SessionId6as_str
FN:28,_RNvMNtNtNtCskc4teZ54Auy_8pjson_rs6domain13value_objects10session_idNtB2_9SessionId7as_uuid
FN:18,_RNvMNtNtNtCskc4teZ54Auy_8pjson_rs6domain13value_objects10session_idNtB2_9SessionId9from_uuid
FN:45,_RNvXs0_NtNtNtCskc4teZ54Auy_8pjson_rs6domain13value_objects10session_idNtB5_9SessionIdNtNtCsd2KPTObkMr_4core3fmt7Display3fmt
FN:51,_RNvXs1_NtNtNtCskc4teZ54Auy_8pjson_rs6domain13value_objects10session_idNtB5_9SessionIdINtNtCsd2KPTObkMr_4core7convert4FromNtCsawi9uOspaqo_4uuid4UuidE4from
FN:39,_RNvXs_NtNtNtCskc4teZ54Auy_8pjson_rs6domain13value_objects10session_idNtB4_9SessionIdNtNtCsd2KPTObkMr_4core7default7Default7default
FNDA:0,_RNvXs2_NtNtNtCskc4teZ54Auy_8pjson_rs6domain13value_objects10session_idNtCsawi9uOspaqo_4uuid4UuidINtNtCsd2KPTObkMr_4core7convert4FromNtB5_9SessionIdE4from
FNDA:0,_RNvMNtNtNtCskc4teZ54Auy_8pjson_rs6domain13value_objects10session_idNtB2_9SessionId11from_string
FNDA:0,_RNvMNtNtNtCskc4teZ54Auy_8pjson_rs6domain13value_objects10session_idNtB2_9SessionId3new
FNDA:0,_RNvMNtNtNtCskc4teZ54Auy_8pjson_rs6domain13value_objects10session_idNtB2_9SessionId6as_str
FNDA:0,_RNvMNtNtNtCskc4teZ54Auy_8pjson_rs6domain13value_objects10session_idNtB2_9SessionId7as_uuid
FNDA:0,_RNvMNtNtNtCskc4teZ54Auy_8pjson_rs6domain13value_objects10session_idNtB2_9SessionId9from_uuid
FNDA:0,_RNvXs0_NtNtNtCskc4teZ54Auy_8pjson_rs6domain13value_objects10session_idNtB5_9SessionIdNtNtCsd2KPTObkMr_4core3fmt7Display3fmt
FNDA:0,_RNvXs1_NtNtNtCskc4teZ54Auy_8pjson_rs6domain13value_objects10session_idNtB5_9SessionIdINtNtCsd2KPTObkMr_4core7convert4FromNtCsawi9uOspaqo_4uuid4UuidE4from
FNDA:0,_RNvXs_NtNtNtCskc4teZ54Auy_8pjson_rs6domain13value_objects10session_idNtB4_9SessionIdNtNtCsd2KPTObkMr_4core7default7Default7default
FNF:9
FNH:0
DA:13,0
DA:14,0
DA:15,0
DA:18,0
DA:19,0
DA:20,0
DA:23,0
DA:24,0
DA:25,0
DA:28,0
DA:29,0
DA:30,0
DA:33,0
DA:34,0
DA:35,0
DA:39,0
DA:40,0
DA:41,0
DA:45,0
DA:46,0
DA:47,0
DA:51,0
DA:52,0
DA:53,0
DA:57,0
DA:58,0
DA:59,0
BRF:0
BRH:0
LF:27
LH:0
end_of_record
SF:/Users/a.gerasimchuk/Documents/git/pjs/crates/pjs-core/src/domain/value_objects/stream_id.rs
FN:57,_RNvXs2_NtNtNtCskc4teZ54Auy_8pjson_rs6domain13value_objects9stream_idNtCsawi9uOspaqo_4uuid4UuidINtNtCsd2KPTObkMr_4core7convert4FromNtB5_8StreamIdE4from
FN:23,_RNvMNtNtNtCskc4teZ54Auy_8pjson_rs6domain13value_objects9stream_idNtB2_8StreamId11from_string
FN:13,_RNvMNtNtNtCskc4teZ54Auy_8pjson_rs6domain13value_objects9stream_idNtB2_8StreamId3new
FN:33,_RNvMNtNtNtCskc4teZ54Auy_8pjson_rs6domain13value_objects9stream_idNtB2_8StreamId6as_str
FN:28,_RNvMNtNtNtCskc4teZ54Auy_8pjson_rs6domain13value_objects9stream_idNtB2_8StreamId7as_uuid
FN:18,_RNvMNtNtNtCskc4teZ54Auy_8pjson_rs6domain13value_objects9stream_idNtB2_8StreamId9from_uuid
FN:45,_RNvXs0_NtNtNtCskc4teZ54Auy_8pjson_rs6domain13value_objects9stream_idNtB5_8StreamIdNtNtCsd2KPTObkMr_4core3fmt7Display3fmt
FN:51,_RNvXs1_NtNtNtCskc4teZ54Auy_8pjson_rs6domain13value_objects9stream_idNtB5_8StreamIdINtNtCsd2KPTObkMr_4core7convert4FromNtCsawi9uOspaqo_4uuid4UuidE4from
FN:39,_RNvXs_NtNtNtCskc4teZ54Auy_8pjson_rs6domain13value_objects9stream_idNtB4_8StreamIdNtNtCsd2KPTObkMr_4core7default7Default7default
FNDA:0,_RNvXs2_NtNtNtCskc4teZ54Auy_8pjson_rs6domain13value_objects9stream_idNtCsawi9uOspaqo_4uuid4UuidINtNtCsd2KPTObkMr_4core7convert4FromNtB5_8StreamIdE4from
FNDA:0,_RNvMNtNtNtCskc4teZ54Auy_8pjson_rs6domain13value_objects9stream_idNtB2_8StreamId11from_string
FNDA:0,_RNvMNtNtNtCskc4teZ54Auy_8pjson_rs6domain13value_objects9stream_idNtB2_8StreamId3new
FNDA:0,_RNvMNtNtNtCskc4teZ54Auy_8pjson_rs6domain13value_objects9stream_idNtB2_8StreamId6as_str
FNDA:0,_RNvMNtNtNtCskc4teZ54Auy_8pjson_rs6domain13value_objects9stream_idNtB2_8StreamId7as_uuid
FNDA:0,_RNvMNtNtNtCskc4teZ54Auy_8pjson_rs6domain13value_objects9stream_idNtB2_8StreamId9from_uuid
FNDA:0,_RNvXs0_NtNtNtCskc4teZ54Auy_8pjson_rs6domain13value_objects9stream_idNtB5_8StreamIdNtNtCsd2KPTObkMr_4core3fmt7Display3fmt
FNDA:0,_RNvXs1_NtNtNtCskc4teZ54Auy_8pjson_rs6domain13value_objects9stream_idNtB5_8StreamIdINtNtCsd2KPTObkMr_4core7convert4FromNtCsawi9uOspaqo_4uuid4UuidE4from
FNDA:0,_RNvXs_NtNtNtCskc4teZ54Auy_8pjson_rs6domain13value_objects9stream_idNtB4_8StreamIdNtNtCsd2KPTObkMr_4core7default7Default7default
FNF:9
FNH:0
DA:13,0
DA:14,0
DA:15,0
DA:18,0
DA:19,0
DA:20,0
DA:23,0
DA:24,0
DA:25,0
DA:28,0
DA:29,0
DA:30,0
DA:33,0
DA:34,0
DA:35,0
DA:39,0
DA:40,0
DA:41,0
DA:45,0
DA:46,0
DA:47,0
DA:51,0
DA:52,0
DA:53,0
DA:57,0
DA:58,0
DA:59,0
BRF:0
BRH:0
LF:27
LH:0
end_of_record
SF:/Users/a.gerasimchuk/Documents/git/pjs/crates/pjs-core/src/error.rs
FN:93,_RNvXs0_NtCskc4teZ54Auy_8pjson_rs5errorNtB5_5ErrorINtNtCsd2KPTObkMr_4core7convert4FromNtNtNtBQ_3str5error9Utf8ErrorE4from
FN:87,_RNvXs_NtCskc4teZ54Auy_8pjson_rs5errorNtB4_5ErrorINtNtCsd2KPTObkMr_4core7convert4FromNtNtNtCs9QY0sRQ9KnX_3std2io5error5ErrorE4from
FN:81,_RINvMNtCskc4teZ54Auy_8pjson_rs5errorNtB3_5Error5otherpEB5_
FN:76,_RINvMNtCskc4teZ54Auy_8pjson_rs5errorNtB3_5Error6memorypEB5_
FN:58,_RINvMNtCskc4teZ54Auy_8pjson_rs5errorNtB3_5Error12invalid_jsonNtNtCs7fnLZwG9eJV_5alloc6string6StringEB5_
FN:66,_RINvMNtCskc4teZ54Auy_8pjson_rs5errorNtB3_5Error13invalid_frameNtNtCs7fnLZwG9eJV_5alloc6string6StringEB5_
FN:71,_RINvMNtCskc4teZ54Auy_8pjson_rs5errorNtB3_5Error6bufferNtNtCs7fnLZwG9eJV_5alloc6string6StringEB5_
FNDA:0,_RNvXs0_NtCskc4teZ54Auy_8pjson_rs5errorNtB5_5ErrorINtNtCsd2KPTObkMr_4core7convert4FromNtNtNtBQ_3str5error9Utf8ErrorE4from
FNDA:0,_RNvXs_NtCskc4teZ54Auy_8pjson_rs5errorNtB4_5ErrorINtNtCsd2KPTObkMr_4core7convert4FromNtNtNtCs9QY0sRQ9KnX_3std2io5error5ErrorE4from
FNDA:0,_RINvMNtCskc4teZ54Auy_8pjson_rs5errorNtB3_5Error5otherpEB5_
FNDA:0,_RINvMNtCskc4teZ54Auy_8pjson_rs5errorNtB3_5Error6memorypEB5_
FNDA:0,_RINvMNtCskc4teZ54Auy_8pjson_rs5errorNtB3_5Error12invalid_jsonNtNtCs7fnLZwG9eJV_5alloc6string6StringEB5_
FNDA:0,_RINvMNtCskc4teZ54Auy_8pjson_rs5errorNtB3_5Error13invalid_frameNtNtCs7fnLZwG9eJV_5alloc6string6StringEB5_
FNDA:0,_RINvMNtCskc4teZ54Auy_8pjson_rs5errorNtB3_5Error6bufferNtNtCs7fnLZwG9eJV_5alloc6string6StringEB5_
FNF:7
FNH:0
DA:58,0
DA:59,0
DA:60,0
DA:61,0
DA:62,0
DA:63,0
DA:66,0
DA:67,0
DA:68,0
DA:71,0
DA:72,0
DA:73,0
DA:76,0
DA:77,0
DA:78,0
DA:81,0
DA:82,0
DA:83,0
DA:87,0
DA:88,0
DA:89,0
DA:93,0
DA:94,0
DA:95,0
BRF:0
BRH:0
LF:24
LH:0
end_of_record
SF:/Users/a.gerasimchuk/Documents/git/pjs/crates/pjs-core/src/frame.rs
FN:151,_RNvMNtCskc4teZ54Auy_8pjson_rs5frameNtB2_5Frame10is_numeric
FN:96,_RNvMNtCskc4teZ54Auy_8pjson_rs5frameNtB2_5Frame11with_schema
FN:156,_RNvMNtCskc4teZ54Auy_8pjson_rs5frameNtB2_5Frame13has_semantics
FN:109,_RNvMNtCskc4teZ54Auy_8pjson_rs5frameNtB2_5Frame13with_checksum
FN:90,_RNvMNtCskc4teZ54Auy_8pjson_rs5frameNtB2_5Frame13with_sequence
FN:82,_RNvMNtCskc4teZ54Auy_8pjson_rs5frameNtB2_5Frame14with_semantics
FN:103,_RNvMNtCskc4teZ54Auy_8pjson_rs5frameNtB2_5Frame16with_compression
FN:66,_RNvMNtCskc4teZ54Auy_8pjson_rs5frameNtB2_5Frame3new
FN:116,_RNvMNtCskc4teZ54Auy_8pjson_rs5frameNtB2_5Frame8validate
FN:167,_RNvNtCskc4teZ54Auy_8pjson_rs5frame6crc32c
FN:173,_RNvNtCskc4teZ54Auy_8pjson_rs5frame9crc32c_sw
FNDA:0,_RNvMNtCskc4teZ54Auy_8pjson_rs5frameNtB2_5Frame10is_numeric
FNDA:0,_RNvMNtCskc4teZ54Auy_8pjson_rs5frameNtB2_5Frame11with_schema
FNDA:0,_RNvMNtCskc4teZ54Auy_8pjson_rs5frameNtB2_5Frame13has_semantics
FNDA:0,_RNvMNtCskc4teZ54Auy_8pjson_rs5frameNtB2_5Frame13with_checksum
FNDA:0,_RNvMNtCskc4teZ54Auy_8pjson_rs5frameNtB2_5Frame13with_sequence
FNDA:0,_RNvMNtCskc4teZ54Auy_8pjson_rs5frameNtB2_5Frame14with_semantics
FNDA:0,_RNvMNtCskc4teZ54Auy_8pjson_rs5frameNtB2_5Frame16with_compression
FNDA:0,_RNvMNtCskc4teZ54Auy_8pjson_rs5frameNtB2_5Frame3new
FNDA:0,_RNvMNtCskc4teZ54Auy_8pjson_rs5frameNtB2_5Frame8validate
FNDA:0,_RNvNtCskc4teZ54Auy_8pjson_rs5frame6crc32c
FNDA:0,_RNvNtCskc4teZ54Auy_8pjson_rs5frame9crc32c_sw
FNF:11
FNH:0
DA:66,0
DA:67,0
DA:68,0
DA:69,0
DA:70,0
DA:71,0
DA:72,0
DA:73,0
DA:74,0
DA:75,0
DA:76,0
DA:77,0
DA:78,0
DA:79,0
DA:82,0
DA:83,0
DA:84,0
DA:85,0
DA:86,0
DA:87,0
DA:90,0
DA:91,0
DA:92,0
DA:93,0
DA:96,0
DA:97,0
DA:98,0
DA:99,0
DA:100,0
DA:103,0
DA:104,0
DA:105,0
DA:106,0
DA:109,0
DA:110,0
DA:111,0
DA:112,0
DA:113,0
DA:116,0
DA:118,0
DA:119,0
DA:120,0
DA:121,0
DA:122,0
DA:123,0
DA:126,0
DA:127,0
DA:128,0
DA:129,0
DA:130,0
DA:131,0
DA:132,0
DA:135,0
DA:136,0
DA:137,0
DA:138,0
DA:139,0
DA:140,0
DA:141,0
DA:142,0
DA:143,0
DA:145,0
DA:146,0
DA:151,0
DA:152,0
DA:153,0
DA:156,0
DA:157,0
DA:158,0
DA:167,0
DA:169,0
DA:170,0
DA:173,0
DA:175,0
DA:177,0
DA:178,0
DA:179,0
DA:180,0
DA:181,0
DA:183,0
DA:188,0
DA:189,0
BRF:0
BRH:0
LF:82
LH:0
end_of_record
SF:/Users/a.gerasimchuk/Documents/git/pjs/crates/pjs-core/src/parser/mod.rs
FN:37,_RNvMNtCskc4teZ54Auy_8pjson_rs6parserNtB2_6Parser11with_config
FN:51,_RNvMNtCskc4teZ54Auy_8pjson_rs6parserNtB2_6Parser19with_serde_fallback
FN:76,_RNvMNtCskc4teZ54Auy_8pjson_rs6parserNtB2_6Parser20parse_with_semantics
FN:28,_RNvMNtCskc4teZ54Auy_8pjson_rs6parserNtB2_6Parser3new
FN:60,_RNvMNtCskc4teZ54Auy_8pjson_rs6parserNtB2_6Parser5parse
FN:91,_RNvMNtCskc4teZ54Auy_8pjson_rs6parserNtB2_6Parser5stats
FN:102,_RNvXs_NtCskc4teZ54Auy_8pjson_rs6parserNtB4_6ParserNtNtCsd2KPTObkMr_4core7default7Default7default
FNDA:0,_RNvMNtCskc4teZ54Auy_8pjson_rs6parserNtB2_6Parser11with_config
FNDA:0,_RNvMNtCskc4teZ54Auy_8pjson_rs6parserNtB2_6Parser19with_serde_fallback
FNDA:0,_RNvMNtCskc4teZ54Auy_8pjson_rs6parserNtB2_6Parser20parse_with_semantics
FNDA:4,_RNvMNtCskc4teZ54Auy_8pjson_rs6parserNtB2_6Parser3new
FNDA:4,_RNvMNtCskc4teZ54Auy_8pjson_rs6parserNtB2_6Parser5parse
FNDA:0,_RNvMNtCskc4teZ54Auy_8pjson_rs6parserNtB2_6Parser5stats
FNDA:0,_RNvXs_NtCskc4teZ54Auy_8pjson_rs6parserNtB4_6ParserNtNtCsd2KPTObkMr_4core7default7Default7default
FNF:7
FNH:2
DA:28,4
DA:29,4
DA:30,4
DA:31,4
DA:32,4
DA:33,4
DA:34,4
DA:37,0
DA:38,0
DA:39,0
DA:40,0
DA:41,0
DA:43,0
DA:44,0
DA:45,0
DA:46,0
DA:47,0
DA:48,0
DA:51,0
DA:52,0
DA:53,0
DA:54,0
DA:55,0
DA:56,0
DA:57,0
DA:60,4
DA:61,4
DA:63,4
DA:64,4
DA:67,0
DA:71,0
DA:73,4
DA:76,0
DA:77,0
DA:78,0
DA:79,0
DA:80,0
DA:81,0
DA:84,0
DA:86,0
DA:88,0
DA:91,0
DA:92,0
DA:94,0
DA:96,0
DA:98,0
DA:102,0
DA:103,0
DA:104,0
BRF:0
BRH:0
LF:49
LH:12
end_of_record
SF:/Users/a.gerasimchuk/Documents/git/pjs/crates/pjs-core/src/parser/scanner.rs
FN:109,_RNCNvMNtNtCskc4teZ54Auy_8pjson_rs6parser7scannerNtB4_10ScanResult13is_table_like0B8_
FN:99,_RNCNvMNtNtCskc4teZ54Auy_8pjson_rs6parser7scannerNtB4_10ScanResult16is_numeric_array0B8_
FN:118,_RNCNvMNtNtCskc4teZ54Auy_8pjson_rs6parser7scannerNtB4_10ScanResult19count_object_starts0B8_
FNDA:0,_RNCNvMNtNtCskc4teZ54Auy_8pjson_rs6parser7scannerNtB4_10ScanResult13is_table_like0B8_
FNDA:0,_RNCNvMNtNtCskc4teZ54Auy_8pjson_rs6parser7scannerNtB4_10ScanResult16is_numeric_array0B8_
FNDA:0,_RNCNvMNtNtCskc4teZ54Auy_8pjson_rs6parser7scannerNtB4_10ScanResult19count_object_starts0B8_
FNF:3
FNH:0
DA:99,0
DA:109,0
DA:118,0
BRF:0
BRH:0
LF:3
LH:0
end_of_record
SF:/Users/a.gerasimchuk/Documents/git/pjs/crates/pjs-core/src/parser/simd/mod.rs
FN:61,_RNvMNtNtCskc4teZ54Auy_8pjson_rs6parser4simdNtB2_14SimdClassifier16scan_object_keys
FN:56,_RNCNvMNtNtCskc4teZ54Auy_8pjson_rs6parser4simdNtB4_14SimdClassifier29calculate_total_string_length0B8_
FN:56,_RNCNvMNtNtCskc4teZ54Auy_8pjson_rs6parser4simdNtB4_14SimdClassifier29calculate_total_string_lengths_0B8_
FN:15,_RNvMNtNtCskc4teZ54Auy_8pjson_rs6parser4simdNtB2_14SimdClassifier19classify_value_type
FN:55,_RNvMNtNtCskc4teZ54Auy_8pjson_rs6parser4simdNtB2_14SimdClassifier29calculate_total_string_length
FN:131,_RNvMs_NtNtCskc4teZ54Auy_8pjson_rs6parser4simdNtB4_14SimdNumericOps11array_stats
FN:111,_RNvMs_NtNtCskc4teZ54Auy_8pjson_rs6parser4simdNtB4_14SimdNumericOps14fast_array_sum
FN:50,_RNCNvMNtNtCskc4teZ54Auy_8pjson_rs6parser4simdNtB4_14SimdClassifier16is_numeric_array0B8_
FN:44,_RNvMNtNtCskc4teZ54Auy_8pjson_rs6parser4simdNtB2_14SimdClassifier16is_numeric_array
FNDA:2,_RNvMNtNtCskc4teZ54Auy_8pjson_rs6parser4simdNtB2_14SimdClassifier16scan_object_keys
FNDA:0,_RNCNvMNtNtCskc4teZ54Auy_8pjson_rs6parser4simdNtB4_14SimdClassifier29calculate_total_string_length0B8_
FNDA:0,_RNCNvMNtNtCskc4teZ54Auy_8pjson_rs6parser4simdNtB4_14SimdClassifier29calculate_total_string_lengths_0B8_
FNDA:0,_RNvMNtNtCskc4teZ54Auy_8pjson_rs6parser4simdNtB2_14SimdClassifier19classify_value_type
FNDA:0,_RNvMNtNtCskc4teZ54Auy_8pjson_rs6parser4simdNtB2_14SimdClassifier29calculate_total_string_length
FNDA:0,_RNvMs_NtNtCskc4teZ54Auy_8pjson_rs6parser4simdNtB4_14SimdNumericOps11array_stats
FNDA:0,_RNvMs_NtNtCskc4teZ54Auy_8pjson_rs6parser4simdNtB4_14SimdNumericOps14fast_array_sum
FNDA:0,_RNCNvMNtNtCskc4teZ54Auy_8pjson_rs6parser4simdNtB4_14SimdClassifier16is_numeric_array0B8_
FNDA:0,_RNvMNtNtCskc4teZ54Auy_8pjson_rs6parser4simdNtB2_14SimdClassifier16is_numeric_array
FNF:9
FNH:1
DA:15,0
DA:17,0
DA:18,0
DA:19,0
DA:20,0
DA:21,0
DA:22,0
DA:24,0
DA:27,0
DA:29,0
DA:30,0
DA:31,0
DA:32,0
DA:33,0
DA:34,0
DA:35,0
DA:36,0
DA:38,0
DA:40,0
DA:44,0
DA:45,0
DA:46,0
DA:47,0
DA:50,0
DA:51,0
DA:55,0
DA:56,0
DA:57,0
DA:61,2
DA:62,2
DA:63,2
DA:64,2
DA:65,2
DA:66,2
DA:67,2
DA:70,4
DA:71,4
DA:72,4
DA:73,2
DA:74,0
DA:75,4
DA:79,2
DA:80,2
DA:111,0
DA:112,0
DA:113,0
DA:115,0
DA:116,0
DA:117,0
DA:118,0
DA:119,0
DA:120,0
DA:122,0
DA:126,0
DA:127,0
DA:131,0
DA:132,0
DA:133,0
DA:134,0
DA:135,0
DA:136,0
DA:137,0
DA:139,0
DA:140,0
DA:141,0
DA:142,0
DA:143,0
DA:144,0
DA:145,0
DA:146,0
DA:148,0
DA:152,0
DA:153,0
BRF:0
BRH:0
LF:76
LH:14
end_of_record
SF:/Users/a.gerasimchuk/Documents/git/pjs/crates/pjs-core/src/parser/simple.rs
FN:50,_RNvMs_NtNtCskc4teZ54Auy_8pjson_rs6parser6simpleNtB4_12SimpleParser11with_config
FN:218,_RNvMs_NtNtCskc4teZ54Auy_8pjson_rs6parser6simpleNtB4_12SimpleParser15is_tabular_data
FN:201,_RNvMs_NtNtCskc4teZ54Auy_8pjson_rs6parser6simpleNtB4_12SimpleParser16is_numeric_array
FN:281,_RNvMs_NtNtCskc4teZ54Auy_8pjson_rs6parser6simpleNtB4_12SimpleParser18detect_column_type
FN:244,_RNvMs_NtNtCskc4teZ54Auy_8pjson_rs6parser6simpleNtB4_12SimpleParser20detect_numeric_dtype
FN:94,_RNvMs_NtNtCskc4teZ54Auy_8pjson_rs6parser6simpleNtB4_12SimpleParser20detect_semantic_type
FN:206,_RNvMs_NtNtCskc4teZ54Auy_8pjson_rs6parser6simpleNtB4_12SimpleParser20is_time_series_array
FN:87,_RNvMs_NtNtCskc4teZ54Auy_8pjson_rs6parser6simpleNtB4_12SimpleParser20parse_with_semantics
FN:260,_RNvMs_NtNtCskc4teZ54Auy_8pjson_rs6parser6simpleNtB4_12SimpleParser21extract_table_columns
FN:103,_RNvMs_NtNtCskc4teZ54Auy_8pjson_rs6parser6simpleNtB4_12SimpleParser22detect_array_semantics
FN:139,_RNvMs_NtNtCskc4teZ54Auy_8pjson_rs6parser6simpleNtB4_12SimpleParser23detect_object_semantics
FN:302,_RNvMs_NtNtCskc4teZ54Auy_8pjson_rs6parser6simpleNtB4_12SimpleParser24looks_like_numeric_value
FN:43,_RNvMs_NtNtCskc4teZ54Auy_8pjson_rs6parser6simpleNtB4_12SimpleParser3new
FN:55,_RNvMs_NtNtCskc4teZ54Auy_8pjson_rs6parser6simpleNtB4_12SimpleParser5parse
FN:307,_RNvMs_NtNtCskc4teZ54Auy_8pjson_rs6parser6simpleNtB4_12SimpleParser5stats
FN:31,_RNvXNtNtCskc4teZ54Auy_8pjson_rs6parser6simpleNtB2_11ParseConfigNtNtCsd2KPTObkMr_4core7default7Default7default
FN:328,_RNvXs0_NtNtCskc4teZ54Auy_8pjson_rs6parser6simpleNtB5_12SimpleParserNtNtCsd2KPTObkMr_4core7default7Default7default
FN:185,_RNCNCNvMs_NtNtCskc4teZ54Auy_8pjson_rs6parser6simpleNtB8_12SimpleParser23detect_object_semanticss1_00Bc_
FN:230,_RNCNvMs_NtNtCskc4teZ54Auy_8pjson_rs6parser6simpleNtB6_12SimpleParser15is_tabular_data0Ba_
FN:202,_RNCNvMs_NtNtCskc4teZ54Auy_8pjson_rs6parser6simpleNtB6_12SimpleParser16is_numeric_array0Ba_
FN:208,_RNCNvMs_NtNtCskc4teZ54Auy_8pjson_rs6parser6simpleNtB6_12SimpleParser20is_time_series_array0Ba_
FN:146,_RNCNvMs_NtNtCskc4teZ54Auy_8pjson_rs6parser6simpleNtB6_12SimpleParser23detect_object_semantics0Ba_
FN:166,_RNCNvMs_NtNtCskc4teZ54Auy_8pjson_rs6parser6simpleNtB6_12SimpleParser23detect_object_semanticss0_0Ba_
FN:185,_RNCNvMs_NtNtCskc4teZ54Auy_8pjson_rs6parser6simpleNtB6_12SimpleParser23detect_object_semanticss1_0Ba_
FN:162,_RNCNvMs_NtNtCskc4teZ54Auy_8pjson_rs6parser6simpleNtB6_12SimpleParser23detect_object_semanticss_0Ba_
FN:67,_RNCNvMs_NtNtCskc4teZ54Auy_8pjson_rs6parser6simpleNtB6_12SimpleParser5parse0Ba_
FNDA:0,_RNvMs_NtNtCskc4teZ54Auy_8pjson_rs6parser6simpleNtB4_12SimpleParser11with_config
FNDA:0,_RNvMs_NtNtCskc4teZ54Auy_8pjson_rs6parser6simpleNtB4_12SimpleParser15is_tabular_data
FNDA:0,_RNvMs_NtNtCskc4teZ54Auy_8pjson_rs6parser6simpleNtB4_12SimpleParser16is_numeric_array
FNDA:0,_RNvMs_NtNtCskc4teZ54Auy_8pjson_rs6parser6simpleNtB4_12SimpleParser18detect_column_type
FNDA:0,_RNvMs_NtNtCskc4teZ54Auy_8pjson_rs6parser6simpleNtB4_12SimpleParser20detect_numeric_dtype
FNDA:0,_RNvMs_NtNtCskc4teZ54Auy_8pjson_rs6parser6simpleNtB4_12SimpleParser20detect_semantic_type
FNDA:0,_RNvMs_NtNtCskc4teZ54Auy_8pjson_rs6parser6simpleNtB4_12SimpleParser20is_time_series_array
FNDA:0,_RNvMs_NtNtCskc4teZ54Auy_8pjson_rs6parser6simpleNtB4_12SimpleParser20parse_with_semantics
FNDA:0,_RNvMs_NtNtCskc4teZ54Auy_8pjson_rs6parser6simpleNtB4_12SimpleParser21extract_table_columns
FNDA:0,_RNvMs_NtNtCskc4teZ54Auy_8pjson_rs6parser6simpleNtB4_12SimpleParser22detect_array_semantics
FNDA:0,_RNvMs_NtNtCskc4teZ54Auy_8pjson_rs6parser6simpleNtB4_12SimpleParser23detect_object_semantics
FNDA:0,_RNvMs_NtNtCskc4teZ54Auy_8pjson_rs6parser6simpleNtB4_12SimpleParser24looks_like_numeric_value
FNDA:4,_RNvMs_NtNtCskc4teZ54Auy_8pjson_rs6parser6simpleNtB4_12SimpleParser3new
FNDA:0,_RNvMs_NtNtCskc4teZ54Auy_8pjson_rs6parser6simpleNtB4_12SimpleParser5parse
FNDA:0,_RNvMs_NtNtCskc4teZ54Auy_8pjson_rs6parser6simpleNtB4_12SimpleParser5stats
FNDA:4,_RNvXNtNtCskc4teZ54Auy_8pjson_rs6parser6simpleNtB2_11ParseConfigNtNtCsd2KPTObkMr_4core7default7Default7default
FNDA:0,_RNvXs0_NtNtCskc4teZ54Auy_8pjson_rs6parser6simpleNtB5_12SimpleParserNtNtCsd2KPTObkMr_4core7default7Default7default
FNDA:0,_RNCNCNvMs_NtNtCskc4teZ54Auy_8pjson_rs6parser6simpleNtB8_12SimpleParser23detect_object_semanticss1_00Bc_
FNDA:0,_RNCNvMs_NtNtCskc4teZ54Auy_8pjson_rs6parser6simpleNtB6_12SimpleParser15is_tabular_data0Ba_
FNDA:0,_RNCNvMs_NtNtCskc4teZ54Auy_8pjson_rs6parser6simpleNtB6_12SimpleParser16is_numeric_array0Ba_
FNDA:0,_RNCNvMs_NtNtCskc4teZ54Auy_8pjson_rs6parser6simpleNtB6_12SimpleParser20is_time_series_array0Ba_
FNDA:0,_RNCNvMs_NtNtCskc4teZ54Auy_8pjson_rs6parser6simpleNtB6_12SimpleParser23detect_object_semantics0Ba_
FNDA:0,_RNCNvMs_NtNtCskc4teZ54Auy_8pjson_rs6parser6simpleNtB6_12SimpleParser23detect_object_semanticss0_0Ba_
FNDA:0,_RNCNvMs_NtNtCskc4teZ54Auy_8pjson_rs6parser6simpleNtB6_12SimpleParser23detect_object_semanticss1_0Ba_
FNDA:0,_RNCNvMs_NtNtCskc4teZ54Auy_8pjson_rs6parser6simpleNtB6_12SimpleParser23detect_object_semanticss_0Ba_
FNDA:0,_RNCNvMs_NtNtCskc4teZ54Auy_8pjson_rs6parser6simpleNtB6_12SimpleParser5parse0Ba_
FNF:26
FNH:2
DA:31,4
DA:32,4
DA:33,4
DA:34,4
DA:35,4
DA:36,4
DA:37,4
DA:38,4
DA:43,4
DA:44,4
DA:45,4
DA:46,4
DA:47,4
DA:50,0
DA:51,0
DA:52,0
DA:55,0
DA:57,0
DA:58,0
DA:59,0
DA:60,0
DA:61,0
DA:62,0
DA:63,0
DA:66,0
DA:67,0
DA:70,0
DA:71,0
DA:73,0
DA:77,0
DA:80,0
DA:81,0
DA:83,0
DA:84,0
DA:87,0
DA:88,0
DA:89,0
DA:90,0
DA:91,0
DA:94,0
DA:95,0
DA:96,0
DA:97,0
DA:98,0
DA:100,0
DA:103,0
DA:104,0
DA:105,0
DA:106,0
DA:109,0
DA:110,0
DA:111,0
DA:112,0
DA:113,0
DA:114,0
DA:115,0
DA:118,0
DA:119,0
DA:120,0
DA:121,0
DA:122,0
DA:123,0
DA:124,0
DA:127,0
DA:128,0
DA:129,0
DA:130,0
DA:131,0
DA:132,0
DA:133,0
DA:135,0
DA:136,0
DA:139,0
DA:141,0
DA:143,0
DA:144,0
DA:145,0
DA:146,0
DA:147,0
DA:148,0
DA:150,0
DA:153,0
DA:154,0
DA:155,0
DA:157,0
DA:160,0
DA:161,0
DA:162,0
DA:164,0
DA:165,0
DA:166,0
DA:167,0
DA:169,0
DA:170,0
DA:171,0
DA:172,0
DA:173,0
DA:174,0
DA:175,0
DA:176,0
DA:179,0
DA:180,0
DA:181,0
DA:183,0
DA:184,0
DA:185,0
DA:186,0
DA:188,0
DA:189,0
DA:190,0
DA:191,0
DA:192,0
DA:193,0
DA:194,0
DA:195,0
DA:197,0
DA:198,0
DA:201,0
DA:202,0
DA:203,0
DA:206,0
DA:207,0
DA:208,0
DA:209,0
DA:210,0
DA:212,0
DA:214,0
DA:215,0
DA:218,0
DA:219,0
DA:220,0
DA:221,0
DA:224,0
DA:225,0
DA:227,0
DA:230,0
DA:231,0
DA:232,0
DA:234,0
DA:235,0
DA:236,0
DA:238,0
DA:240,0
DA:241,0
DA:244,0
DA:245,0
DA:246,0
DA:247,0
DA:248,0
DA:249,0
DA:250,0
DA:252,0
DA:255,0
DA:257,0
DA:260,0
DA:261,0
DA:262,0
DA:263,0
DA:264,0
DA:266,0
DA:267,0
DA:268,0
DA:269,0
DA:270,0
DA:271,0
DA:272,0
DA:273,0
DA:274,0
DA:275,0
DA:277,0
DA:278,0
DA:281,0
DA:282,0
DA:283,0
DA:284,0
DA:285,0
DA:286,0
DA:287,0
DA:289,0
DA:292,0
DA:293,0
DA:295,0
DA:297,0
DA:299,0
DA:302,0
DA:303,0
DA:304,0
DA:307,0
DA:308,0
DA:309,0
DA:310,0
DA:311,0
DA:312,0
DA:313,0
DA:328,0
DA:329,0
DA:330,0
BRF:0
BRH:0
LF:206
LH:13
end_of_record
SF:/Users/a.gerasimchuk/Documents/git/pjs/crates/pjs-core/src/parser/sonic.rs
FN:275,_RNCNvMs_NtNtCskc4teZ54Auy_8pjson_rs6parser5sonicNtB6_11SonicParser28analyze_array_semantics_simd0Ba_
FN:280,_RNCNvMs_NtNtCskc4teZ54Auy_8pjson_rs6parser5sonicNtB6_11SonicParser28analyze_array_semantics_simds0_0Ba_
FN:280,_RNCNvMs_NtNtCskc4teZ54Auy_8pjson_rs6parser5sonicNtB6_11SonicParser28analyze_array_semantics_simds1_0Ba_
FN:291,_RNCNvMs_NtNtCskc4teZ54Auy_8pjson_rs6parser5sonicNtB6_11SonicParser28analyze_array_semantics_simds2_0Ba_
FN:276,_RNCNvMs_NtNtCskc4teZ54Auy_8pjson_rs6parser5sonicNtB6_11SonicParser28analyze_array_semantics_simds_0Ba_
FN:178,_RNCNvMs_NtNtCskc4teZ54Auy_8pjson_rs6parser5sonicNtB6_11SonicParser29analyze_object_semantics_simd0Ba_
FN:195,_RNCNvMs_NtNtCskc4teZ54Auy_8pjson_rs6parser5sonicNtB6_11SonicParser29analyze_object_semantics_simds_0Ba_
FN:92,_RNCNvMs_NtNtCskc4teZ54Auy_8pjson_rs6parser5sonicNtB6_11SonicParser5parse0Ba_
FN:330,_RNvMs0_NtNtCskc4teZ54Auy_8pjson_rs6parser5sonicNtB5_9LazyFrame5frame
FN:67,_RNvMs_NtNtCskc4teZ54Auy_8pjson_rs6parser5sonicNtB4_11SonicParser11with_config
FN:152,_RNvMs_NtNtCskc4teZ54Auy_8pjson_rs6parser5sonicNtB4_11SonicParser26detect_semantic_type_sonic
FN:217,_RNvMs_NtNtCskc4teZ54Auy_8pjson_rs6parser5sonicNtB4_11SonicParser28analyze_array_semantics_simd
FN:169,_RNvMs_NtNtCskc4teZ54Auy_8pjson_rs6parser5sonicNtB4_11SonicParser29analyze_object_semantics_simd
FN:59,_RNvMs_NtNtCskc4teZ54Auy_8pjson_rs6parser5sonicNtB4_11SonicParser3new
FN:75,_RNvMs_NtNtCskc4teZ54Auy_8pjson_rs6parser5sonicNtB4_11SonicParser5parse
FN:147,_RNvMs_NtNtCskc4teZ54Auy_8pjson_rs6parser5sonicNtB4_11SonicParser9get_stats
FN:19,_RNvNtNtCskc4teZ54Auy_8pjson_rs6parser5sonic8unlikely
FN:33,_RNvXNtNtCskc4teZ54Auy_8pjson_rs6parser5sonicNtB2_11SonicConfigNtNtCsd2KPTObkMr_4core7default7Default7default
FN:336,_RNvXs1_NtNtCskc4teZ54Auy_8pjson_rs6parser5sonicNtB5_11SonicParserNtNtCsd2KPTObkMr_4core7default7Default7default
FNDA:0,_RNCNvMs_NtNtCskc4teZ54Auy_8pjson_rs6parser5sonicNtB6_11SonicParser28analyze_array_semantics_simd0Ba_
FNDA:0,_RNCNvMs_NtNtCskc4teZ54Auy_8pjson_rs6parser5sonicNtB6_11SonicParser28analyze_array_semantics_simds0_0Ba_
FNDA:0,_RNCNvMs_NtNtCskc4teZ54Auy_8pjson_rs6parser5sonicNtB6_11SonicParser28analyze_array_semantics_simds1_0Ba_
FNDA:0,_RNCNvMs_NtNtCskc4teZ54Auy_8pjson_rs6parser5sonicNtB6_11SonicParser28analyze_array_semantics_simds2_0Ba_
FNDA:0,_RNCNvMs_NtNtCskc4teZ54Auy_8pjson_rs6parser5sonicNtB6_11SonicParser28analyze_array_semantics_simds_0Ba_
FNDA:0,_RNCNvMs_NtNtCskc4teZ54Auy_8pjson_rs6parser5sonicNtB6_11SonicParser29analyze_object_semantics_simd0Ba_
FNDA:0,_RNCNvMs_NtNtCskc4teZ54Auy_8pjson_rs6parser5sonicNtB6_11SonicParser29analyze_object_semantics_simds_0Ba_
FNDA:0,_RNCNvMs_NtNtCskc4teZ54Auy_8pjson_rs6parser5sonicNtB6_11SonicParser5parse0Ba_
FNDA:0,_RNvMs0_NtNtCskc4teZ54Auy_8pjson_rs6parser5sonicNtB5_9LazyFrame5frame
FNDA:0,_RNvMs_NtNtCskc4teZ54Auy_8pjson_rs6parser5sonicNtB4_11SonicParser11with_config
FNDA:2,_RNvMs_NtNtCskc4teZ54Auy_8pjson_rs6parser5sonicNtB4_11SonicParser26detect_semantic_type_sonic
FNDA:0,_RNvMs_NtNtCskc4teZ54Auy_8pjson_rs6parser5sonicNtB4_11SonicParser28analyze_array_semantics_simd
FNDA:2,_RNvMs_NtNtCskc4teZ54Auy_8pjson_rs6parser5sonicNtB4_11SonicParser29analyze_object_semantics_simd
FNDA:4,_RNvMs_NtNtCskc4teZ54Auy_8pjson_rs6parser5sonicNtB4_11SonicParser3new
FNDA:4,_RNvMs_NtNtCskc4teZ54Auy_8pjson_rs6parser5sonicNtB4_11SonicParser5parse
FNDA:0,_RNvMs_NtNtCskc4teZ54Auy_8pjson_rs6parser5sonicNtB4_11SonicParser9get_stats
FNDA:4,_RNvNtNtCskc4teZ54Auy_8pjson_rs6parser5sonic8unlikely
FNDA:4,_RNvXNtNtCskc4teZ54Auy_8pjson_rs6parser5sonicNtB2_11SonicConfigNtNtCsd2KPTObkMr_4core7default7Default7default
FNDA:0,_RNvXs1_NtNtCskc4teZ54Auy_8pjson_rs6parser5sonicNtB5_11SonicParserNtNtCsd2KPTObkMr_4core7default7Default7default
FNF:19
FNH:6
DA:19,4
DA:20,4
DA:21,4
DA:33,4
DA:34,4
DA:35,4
DA:36,4
DA:37,4
DA:38,4
DA:59,4
DA:60,4
DA:61,4
DA:62,4
DA:63,4
DA:64,4
DA:67,0
DA:68,0
DA:69,0
DA:70,0
DA:71,0
DA:72,0
DA:75,4
DA:76,4
DA:79,4
DA:80,0
DA:81,4
DA:84,4
DA:87,4
DA:91,4
DA:92,4
DA:95,4
DA:96,2
DA:98,2
DA:102,4
DA:104,2
DA:107,2
DA:111,4
DA:112,4
DA:113,4
DA:114,4
DA:115,4
DA:116,4
DA:117,4
DA:118,4
DA:120,4
DA:121,0
DA:123,4
DA:127,4
DA:128,4
DA:129,4
DA:130,4
DA:131,4
DA:132,4
DA:133,4
DA:134,4
DA:135,4
DA:136,4
DA:137,4
DA:139,4
DA:140,4
DA:141,4
DA:142,4
DA:143,4
DA:144,4
DA:147,0
DA:148,0
DA:149,0
DA:152,2
DA:153,2
DA:154,0
DA:155,0
DA:156,0
DA:157,2
DA:159,2
DA:160,2
DA:161,2
DA:162,0
DA:163,0
DA:165,0
DA:166,2
DA:169,2
DA:170,2
DA:173,2
DA:175,0
DA:176,0
DA:177,0
DA:178,0
DA:179,0
DA:180,0
DA:182,2
DA:185,2
DA:186,0
DA:187,0
DA:189,0
DA:193,0
DA:194,0
DA:195,0
DA:196,0
DA:197,0
DA:199,0
DA:201,0
DA:202,0
DA:204,0
DA:205,0
DA:206,0
DA:207,0
DA:208,0
DA:209,0
DA:210,0
DA:211,2
DA:213,2
DA:214,2
DA:217,0
DA:218,0
DA:219,0
DA:220,0
DA:221,0
DA:224,0
DA:225,0
DA:226,0
DA:227,0
DA:228,0
DA:229,0
DA:230,0
DA:232,0
DA:235,0
DA:238,0
DA:241,0
DA:242,0
DA:243,0
DA:244,0
DA:245,0
DA:248,0
DA:249,0
DA:252,0
DA:253,0
DA:254,0
DA:255,0
DA:256,0
DA:257,0
DA:258,0
DA:260,0
DA:261,0
DA:265,0
DA:266,0
DA:267,0
DA:268,0
DA:269,0
DA:270,0
DA:271,0
DA:272,0
DA:275,0
DA:276,0
DA:277,0
DA:280,0
DA:281,0
DA:283,0
DA:284,0
DA:285,0
DA:287,0
DA:289,0
DA:290,0
DA:291,0
DA:292,0
DA:293,0
DA:294,0
DA:295,0
DA:296,0
DA:297,0
DA:299,0
DA:302,0
DA:303,0
DA:304,0
DA:305,0
DA:306,0
DA:307,0
DA:308,0
DA:310,0
DA:311,0
DA:312,0
DA:313,0
DA:314,0
DA:315,0
DA:316,0
DA:318,0
DA:319,0
DA:330,0
DA:331,0
DA:332,0
DA:336,0
DA:337,0
DA:338,0
BRF:0
BRH:0
LF:200
LH:71
end_of_record
SF:/Users/a.gerasimchuk/Documents/git/pjs/crates/pjs-core/src/parser/value.rs
FN:226,_RNCNCNvMs0_NtNtCskc4teZ54Auy_8pjson_rs6parser5valueNtB9_10LazyObject3get00Bd_
FN:224,_RNCNvMs0_NtNtCskc4teZ54Auy_8pjson_rs6parser5valueNtB7_10LazyObject3get0Bb_
FN:237,_RNCNvMs0_NtNtCskc4teZ54Auy_8pjson_rs6parser5valueNtB7_10LazyObject4keys0Bb_
FN:160,_RNCNvMs_NtNtCskc4teZ54Auy_8pjson_rs6parser5valueNtB6_9LazyArray10get_parsed0Ba_
FN:182,_RNCNvMs_NtNtCskc4teZ54Auy_8pjson_rs6parser5valueNtB6_9LazyArray10is_numeric0Ba_
FN:193,_RNCNvMs_NtNtCskc4teZ54Auy_8pjson_rs6parser5valueNtB6_9LazyArray17looks_like_number0Ba_
FN:67,_RNvMNtNtCskc4teZ54Auy_8pjson_rs6parser5valueNtB2_9JsonValue6as_f64
FN:75,_RNvMNtNtCskc4teZ54Auy_8pjson_rs6parser5valueNtB2_9JsonValue6as_i64
FN:59,_RNvMNtNtCskc4teZ54Auy_8pjson_rs6parser5valueNtB2_9JsonValue6as_str
FN:83,_RNvMNtNtCskc4teZ54Auy_8pjson_rs6parser5valueNtB2_9JsonValue7as_bool
FN:91,_RNvMNtNtCskc4teZ54Auy_8pjson_rs6parser5valueNtB2_9JsonValue7is_null
FN:96,_RNvMNtNtCskc4teZ54Auy_8pjson_rs6parser5valueNtB2_9JsonValue8as_array
FN:104,_RNvMNtNtCskc4teZ54Auy_8pjson_rs6parser5valueNtB2_9JsonValue9as_object
FN:112,_RNvMNtNtCskc4teZ54Auy_8pjson_rs6parser5valueNtB2_9JsonValue9parse_raw
FN:245,_RNvMs0_NtNtCskc4teZ54Auy_8pjson_rs6parser5valueNtB5_10LazyObject24extract_field_boundaries
FN:222,_RNvMs0_NtNtCskc4teZ54Auy_8pjson_rs6parser5valueNtB5_10LazyObject3get
FN:212,_RNvMs0_NtNtCskc4teZ54Auy_8pjson_rs6parser5valueNtB5_10LazyObject3len
FN:234,_RNvMs0_NtNtCskc4teZ54Auy_8pjson_rs6parser5valueNtB5_10LazyObject4keys
FN:217,_RNvMs0_NtNtCskc4teZ54Auy_8pjson_rs6parser5valueNtB5_10LazyObject8is_empty
FN:201,_RNvMs0_NtNtCskc4teZ54Auy_8pjson_rs6parser5valueNtB5_10LazyObject9from_scan
FN:278,_RNvMs2_NtNtCskc4teZ54Auy_8pjson_rs6parser5valueNtB5_10FieldRange3new
FN:159,_RNvMs_NtNtCskc4teZ54Auy_8pjson_rs6parser5valueNtB4_9LazyArray10get_parsed
FN:179,_RNvMs_NtNtCskc4teZ54Auy_8pjson_rs6parser5valueNtB4_9LazyArray10is_numeric
FN:188,_RNvMs_NtNtCskc4teZ54Auy_8pjson_rs6parser5valueNtB4_9LazyArray17looks_like_number
FN:172,_RNvMs_NtNtCskc4teZ54Auy_8pjson_rs6parser5valueNtB4_9LazyArray26extract_element_boundaries
FN:149,_RNvMs_NtNtCskc4teZ54Auy_8pjson_rs6parser5valueNtB4_9LazyArray3get
FN:139,_RNvMs_NtNtCskc4teZ54Auy_8pjson_rs6parser5valueNtB4_9LazyArray3len
FN:164,_RNvMs_NtNtCskc4teZ54Auy_8pjson_rs6parser5valueNtB4_9LazyArray4iter
FN:144,_RNvMs_NtNtCskc4teZ54Auy_8pjson_rs6parser5valueNtB4_9LazyArray8is_empty
FN:127,_RNvMs_NtNtCskc4teZ54Auy_8pjson_rs6parser5valueNtB4_9LazyArray9from_scan
FN:264,_RNvXs1_NtNtCskc4teZ54Auy_8pjson_rs6parser5valueNtB5_13LazyArrayIterNtNtNtNtCsd2KPTObkMr_4core4iter6traits8iterator8Iterator4next
FNDA:0,_RNCNCNvMs0_NtNtCskc4teZ54Auy_8pjson_rs6parser5valueNtB9_10LazyObject3get00Bd_
FNDA:0,_RNCNvMs0_NtNtCskc4teZ54Auy_8pjson_rs6parser5valueNtB7_10LazyObject3get0Bb_
FNDA:0,_RNCNvMs0_NtNtCskc4teZ54Auy_8pjson_rs6parser5valueNtB7_10LazyObject4keys0Bb_
FNDA:0,_RNCNvMs_NtNtCskc4teZ54Auy_8pjson_rs6parser5valueNtB6_9LazyArray10get_parsed0Ba_
FNDA:0,_RNCNvMs_NtNtCskc4teZ54Auy_8pjson_rs6parser5valueNtB6_9LazyArray10is_numeric0Ba_
FNDA:0,_RNCNvMs_NtNtCskc4teZ54Auy_8pjson_rs6parser5valueNtB6_9LazyArray17looks_like_number0Ba_
FNDA:0,_RNvMNtNtCskc4teZ54Auy_8pjson_rs6parser5valueNtB2_9JsonValue6as_f64
FNDA:0,_RNvMNtNtCskc4teZ54Auy_8pjson_rs6parser5valueNtB2_9JsonValue6as_i64
FNDA:0,_RNvMNtNtCskc4teZ54Auy_8pjson_rs6parser5valueNtB2_9JsonValue6as_str
FNDA:0,_RNvMNtNtCskc4teZ54Auy_8pjson_rs6parser5valueNtB2_9JsonValue7as_bool
FNDA:0,_RNvMNtNtCskc4teZ54Auy_8pjson_rs6parser5valueNtB2_9JsonValue7is_null
FNDA:0,_RNvMNtNtCskc4teZ54Auy_8pjson_rs6parser5valueNtB2_9JsonValue8as_array
FNDA:0,_RNvMNtNtCskc4teZ54Auy_8pjson_rs6parser5valueNtB2_9JsonValue9as_object
FNDA:0,_RNvMNtNtCskc4teZ54Auy_8pjson_rs6parser5valueNtB2_9JsonValue9parse_raw
FNDA:0,_RNvMs0_NtNtCskc4teZ54Auy_8pjson_rs6parser5valueNtB5_10LazyObject24extract_field_boundaries
FNDA:0,_RNvMs0_NtNtCskc4teZ54Auy_8pjson_rs6parser5valueNtB5_10LazyObject3get
FNDA:0,_RNvMs0_NtNtCskc4teZ54Auy_8pjson_rs6parser5valueNtB5_10LazyObject3len
FNDA:0,_RNvMs0_NtNtCskc4teZ54Auy_8pjson_rs6parser5valueNtB5_10LazyObject4keys
FNDA:0,_RNvMs0_NtNtCskc4teZ54Auy_8pjson_rs6parser5valueNtB5_10LazyObject8is_empty
FNDA:0,_RNvMs0_NtNtCskc4teZ54Auy_8pjson_rs6parser5valueNtB5_10LazyObject9from_scan
FNDA:0,_RNvMs2_NtNtCskc4teZ54Auy_8pjson_rs6parser5valueNtB5_10FieldRange3new
FNDA:0,_RNvMs_NtNtCskc4teZ54Auy_8pjson_rs6parser5valueNtB4_9LazyArray10get_parsed
FNDA:0,_RNvMs_NtNtCskc4teZ54Auy_8pjson_rs6parser5valueNtB4_9LazyArray10is_numeric
FNDA:0,_RNvMs_NtNtCskc4teZ54Auy_8pjson_rs6parser5valueNtB4_9LazyArray17looks_like_number
FNDA:0,_RNvMs_NtNtCskc4teZ54Auy_8pjson_rs6parser5valueNtB4_9LazyArray26extract_element_boundaries
FNDA:0,_RNvMs_NtNtCskc4teZ54Auy_8pjson_rs6parser5valueNtB4_9LazyArray3get
FNDA:0,_RNvMs_NtNtCskc4teZ54Auy_8pjson_rs6parser5valueNtB4_9LazyArray3len
FNDA:0,_RNvMs_NtNtCskc4teZ54Auy_8pjson_rs6parser5valueNtB4_9LazyArray4iter
FNDA:0,_RNvMs_NtNtCskc4teZ54Auy_8pjson_rs6parser5valueNtB4_9LazyArray8is_empty
FNDA:0,_RNvMs_NtNtCskc4teZ54Auy_8pjson_rs6parser5valueNtB4_9LazyArray9from_scan
FNDA:0,_RNvXs1_NtNtCskc4teZ54Auy_8pjson_rs6parser5valueNtB5_13LazyArrayIterNtNtNtNtCsd2KPTObkMr_4core4iter6traits8iterator8Iterator4next
FNF:31
FNH:0
DA:59,0
DA:60,0
DA:61,0
DA:62,0
DA:64,0
DA:67,0
DA:68,0
DA:69,0
DA:70,0
DA:72,0
DA:75,0
DA:76,0
DA:77,0
DA:78,0
DA:80,0
DA:83,0
DA:84,0
DA:85,0
DA:86,0
DA:88,0
DA:91,0
DA:92,0
DA:93,0
DA:96,0
DA:97,0
DA:98,0
DA:99,0
DA:101,0
DA:104,0
DA:105,0
DA:106,0
DA:107,0
DA:109,0
DA:112,0
DA:113,0
DA:114,0
DA:117,0
DA:118,0
DA:120,0
DA:122,0
DA:127,0
DA:129,0
DA:131,0
DA:132,0
DA:133,0
DA:134,0
DA:135,0
DA:136,0
DA:139,0
DA:140,0
DA:141,0
DA:144,0
DA:145,0
DA:146,0
DA:149,0
DA:150,0
DA:151,0
DA:152,0
DA:154,0
DA:155,0
DA:156,0
DA:159,0
DA:160,0
DA:161,0
DA:164,0
DA:165,0
DA:166,0
DA:167,0
DA:168,0
DA:169,0
DA:172,0
DA:175,0
DA:176,0
DA:179,0
DA:181,0
DA:182,0
DA:183,0
DA:184,0
DA:185,0
DA:186,0
DA:188,0
DA:189,0
DA:190,0
DA:191,0
DA:193,0
DA:194,0
DA:195,0
DA:196,0
DA:201,0
DA:202,0
DA:204,0
DA:205,0
DA:206,0
DA:207,0
DA:208,0
DA:209,0
DA:212,0
DA:213,0
DA:214,0
DA:217,0
DA:218,0
DA:219,0
DA:222,0
DA:224,0
DA:225,0
DA:226,0
DA:227,0
DA:230,0
DA:231,0
DA:234,0
DA:235,0
DA:236,0
DA:237,0
DA:238,0
DA:239,0
DA:240,0
DA:241,0
DA:242,0
DA:245,0
DA:246,0
DA:247,0
DA:248,0
DA:251,0
DA:252,0
DA:264,0
DA:265,0
DA:266,0
DA:267,0
DA:269,0
DA:270,0
DA:272,0
DA:273,0
DA:278,0
DA:279,0
DA:280,0
BRF:0
BRH:0
LF:142
LH:0
end_of_record
SF:/Users/a.gerasimchuk/Documents/git/pjs/crates/pjs-core/src/semantic.rs
FN:184,_RNvMNtCskc4teZ54Auy_8pjson_rs8semanticNtB2_12SemanticType11is_columnar
FN:170,_RNvMNtCskc4teZ54Auy_8pjson_rs8semanticNtB2_12SemanticType13numeric_dtype
FN:179,_RNvMNtCskc4teZ54Auy_8pjson_rs8semanticNtB2_12SemanticType16is_simd_friendly
FN:189,_RNvMNtCskc4teZ54Auy_8pjson_rs8semanticNtB2_12SemanticType9size_hint
FN:257,_RNvMs1_NtCskc4teZ54Auy_8pjson_rs8semanticNtB5_12SemanticMeta10with_hints
FN:266,_RNvMs1_NtCskc4teZ54Auy_8pjson_rs8semanticNtB5_12SemanticMeta14with_secondary
FN:272,_RNvMs1_NtCskc4teZ54Auy_8pjson_rs8semanticNtB5_12SemanticMeta19processing_strategy
FN:248,_RNvMs1_NtCskc4teZ54Auy_8pjson_rs8semanticNtB5_12SemanticMeta3new
FN:211,_RNvMs_NtCskc4teZ54Auy_8pjson_rs8semanticNtB4_12NumericDType4size
FN:221,_RNvMs_NtCskc4teZ54Auy_8pjson_rs8semanticNtB4_12NumericDType8is_float
FN:226,_RNvMs_NtCskc4teZ54Auy_8pjson_rs8semanticNtB4_12NumericDType9is_signed
FN:235,_RNvXs0_NtCskc4teZ54Auy_8pjson_rs8semanticNtB5_15ProcessingHintsNtNtCsd2KPTObkMr_4core7default7Default7default
FNDA:0,_RNvMNtCskc4teZ54Auy_8pjson_rs8semanticNtB2_12SemanticType11is_columnar
FNDA:0,_RNvMNtCskc4teZ54Auy_8pjson_rs8semanticNtB2_12SemanticType13numeric_dtype
FNDA:0,_RNvMNtCskc4teZ54Auy_8pjson_rs8semanticNtB2_12SemanticType16is_simd_friendly
FNDA:0,_RNvMNtCskc4teZ54Auy_8pjson_rs8semanticNtB2_12SemanticType9size_hint
FNDA:0,_RNvMs1_NtCskc4teZ54Auy_8pjson_rs8semanticNtB5_12SemanticMeta10with_hints
FNDA:0,_RNvMs1_NtCskc4teZ54Auy_8pjson_rs8semanticNtB5_12SemanticMeta14with_secondary
FNDA:0,_RNvMs1_NtCskc4teZ54Auy_8pjson_rs8semanticNtB5_12SemanticMeta19processing_strategy
FNDA:0,_RNvMs1_NtCskc4teZ54Auy_8pjson_rs8semanticNtB5_12SemanticMeta3new
FNDA:0,_RNvMs_NtCskc4teZ54Auy_8pjson_rs8semanticNtB4_12NumericDType4size
FNDA:0,_RNvMs_NtCskc4teZ54Auy_8pjson_rs8semanticNtB4_12NumericDType8is_float
FNDA:0,_RNvMs_NtCskc4teZ54Auy_8pjson_rs8semanticNtB4_12NumericDType9is_signed
FNDA:0,_RNvXs0_NtCskc4teZ54Auy_8pjson_rs8semanticNtB5_15ProcessingHintsNtNtCsd2KPTObkMr_4core7default7Default7default
FNF:12
FNH:0
DA:170,0
DA:171,0
DA:172,0
DA:173,0
DA:174,0
DA:176,0
DA:179,0
DA:180,0
DA:181,0
DA:184,0
DA:185,0
DA:186,0
DA:189,0
DA:190,0
DA:192,0
DA:193,0
DA:194,0
DA:196,0
DA:197,0
DA:199,0
DA:201,0
DA:202,0
DA:204,0
DA:206,0
DA:211,0
DA:212,0
DA:213,0
DA:214,0
DA:215,0
DA:216,0
DA:218,0
DA:221,0
DA:222,0
DA:223,0
DA:226,0
DA:227,0
DA:228,0
DA:231,0
DA:235,0
DA:236,0
DA:237,0
DA:238,0
DA:239,0
DA:240,0
DA:241,0
DA:242,0
DA:243,0
DA:248,0
DA:249,0
DA:250,0
DA:251,0
DA:252,0
DA:253,0
DA:254,0
DA:257,0
DA:258,0
DA:259,0
DA:260,0
DA:261,0
DA:262,0
DA:263,0
DA:266,0
DA:267,0
DA:268,0
DA:269,0
DA:272,0
DA:274,0
DA:275,0
DA:276,0
DA:278,0
DA:279,0
DA:280,0
DA:283,0
DA:285,0
DA:286,0
DA:288,0
DA:290,0
DA:291,0
DA:292,0
DA:294,0
BRF:0
BRH:0
LF:80
LH:0
end_of_record
SF:/Users/a.gerasimchuk/Documents/git/pjs/crates/pjs-core/src/stream/compression_integration.rs
FN:128,_RNvMNtNtCskc4teZ54Auy_8pjson_rs6stream23compression_integrationNtB2_19StreamingCompressor11reset_stats
FN:143,_RNvMNtNtCskc4teZ54Auy_8pjson_rs6stream23compression_integrationNtB2_19StreamingCompressor12update_stats
FN:83,_RNvMNtNtCskc4teZ54Auy_8pjson_rs6stream23compression_integrationNtB2_19StreamingCompressor14compress_frame
FN:71,_RNvMNtNtCskc4teZ54Auy_8pjson_rs6stream23compression_integrationNtB2_19StreamingCompressor15with_strategies
FN:108,_RNvMNtNtCskc4teZ54Auy_8pjson_rs6stream23compression_integrationNtB2_19StreamingCompressor17optimize_for_data
FN:158,_RNvMNtNtCskc4teZ54Auy_8pjson_rs6stream23compression_integrationNtB2_19StreamingCompressor29create_decompression_metadata
FN:133,_RNvMNtNtCskc4teZ54Auy_8pjson_rs6stream23compression_integrationNtB2_19StreamingCompressor30select_compressor_for_priority
FN:62,_RNvMNtNtCskc4teZ54Auy_8pjson_rs6stream23compression_integrationNtB2_19StreamingCompressor3new
FN:123,_RNvMNtNtCskc4teZ54Auy_8pjson_rs6stream23compression_integrationNtB2_19StreamingCompressor9get_stats
FN:272,_RNvMs0_NtNtCskc4teZ54Auy_8pjson_rs6stream23compression_integrationNtB5_21StreamingDecompressor14update_context
FN:287,_RNvMs0_NtNtCskc4teZ54Auy_8pjson_rs6stream23compression_integrationNtB5_21StreamingDecompressor15decompress_data
FN:341,_RNvMs0_NtNtCskc4teZ54Auy_8pjson_rs6stream23compression_integrationNtB5_21StreamingDecompressor16decompress_delta
FN:248,_RNvMs0_NtNtCskc4teZ54Auy_8pjson_rs6stream23compression_integrationNtB5_21StreamingDecompressor16decompress_frame
FN:312,_RNvMs0_NtNtCskc4teZ54Auy_8pjson_rs6stream23compression_integrationNtB5_21StreamingDecompressor21decompress_dictionary
FN:348,_RNvMs0_NtNtCskc4teZ54Auy_8pjson_rs6stream23compression_integrationNtB5_21StreamingDecompressor21decompress_run_length
FN:354,_RNvMs0_NtNtCskc4teZ54Auy_8pjson_rs6stream23compression_integrationNtB5_21StreamingDecompressor26update_decompression_stats
FN:239,_RNvMs0_NtNtCskc4teZ54Auy_8pjson_rs6stream23compression_integrationNtB5_21StreamingDecompressor3new
FN:373,_RNvMs0_NtNtCskc4teZ54Auy_8pjson_rs6stream23compression_integrationNtB5_21StreamingDecompressor9get_stats
FN:202,_RNvMs_NtNtCskc4teZ54Auy_8pjson_rs6stream23compression_integrationNtB4_16CompressionStats11bytes_saved
FN:207,_RNvMs_NtNtCskc4teZ54Auy_8pjson_rs6stream23compression_integrationNtB4_16CompressionStats16percentage_saved
FN:189,_RNvMs_NtNtCskc4teZ54Auy_8pjson_rs6stream23compression_integrationNtB4_16CompressionStats25overall_compression_ratio
FN:197,_RNvMs_NtNtCskc4teZ54Auy_8pjson_rs6stream23compression_integrationNtB4_16CompressionStats26priority_compression_ratio
FN:379,_RNvXs1_NtNtCskc4teZ54Auy_8pjson_rs6stream23compression_integrationNtB5_19StreamingCompressorNtNtCsd2KPTObkMr_4core7default7Default7default
FN:385,_RNvXs2_NtNtCskc4teZ54Auy_8pjson_rs6stream23compression_integrationNtB5_21StreamingDecompressorNtNtCsd2KPTObkMr_4core7default7Default7default
FN:88,_RNCNvMNtNtCskc4teZ54Auy_8pjson_rs6stream23compression_integrationNtB4_19StreamingCompressor14compress_frame0B8_
FN:323,_RNCNvMs0_NtNtCskc4teZ54Auy_8pjson_rs6stream23compression_integrationNtB7_21StreamingDecompressor21decompress_dictionary0Bb_
FNDA:0,_RNvMNtNtCskc4teZ54Auy_8pjson_rs6stream23compression_integrationNtB2_19StreamingCompressor11reset_stats
FNDA:0,_RNvMNtNtCskc4teZ54Auy_8pjson_rs6stream23compression_integrationNtB2_19StreamingCompressor12update_stats
FNDA:0,_RNvMNtNtCskc4teZ54Auy_8pjson_rs6stream23compression_integrationNtB2_19StreamingCompressor14compress_frame
FNDA:0,_RNvMNtNtCskc4teZ54Auy_8pjson_rs6stream23compression_integrationNtB2_19StreamingCompressor15with_strategies
FNDA:0,_RNvMNtNtCskc4teZ54Auy_8pjson_rs6stream23compression_integrationNtB2_19StreamingCompressor17optimize_for_data
FNDA:0,_RNvMNtNtCskc4teZ54Auy_8pjson_rs6stream23compression_integrationNtB2_19StreamingCompressor29create_decompression_metadata
FNDA:0,_RNvMNtNtCskc4teZ54Auy_8pjson_rs6stream23compression_integrationNtB2_19StreamingCompressor30select_compressor_for_priority
FNDA:0,_RNvMNtNtCskc4teZ54Auy_8pjson_rs6stream23compression_integrationNtB2_19StreamingCompressor3new
FNDA:0,_RNvMNtNtCskc4teZ54Auy_8pjson_rs6stream23compression_integrationNtB2_19StreamingCompressor9get_stats
FNDA:0,_RNvMs0_NtNtCskc4teZ54Auy_8pjson_rs6stream23compression_integrationNtB5_21StreamingDecompressor14update_context
FNDA:0,_RNvMs0_NtNtCskc4teZ54Auy_8pjson_rs6stream23compression_integrationNtB5_21StreamingDecompressor15decompress_data
FNDA:0,_RNvMs0_NtNtCskc4teZ54Auy_8pjson_rs6stream23compression_integrationNtB5_21StreamingDecompressor16decompress_delta
FNDA:0,_RNvMs0_NtNtCskc4teZ54Auy_8pjson_rs6stream23compression_integrationNtB5_21StreamingDecompressor16decompress_frame
FNDA:0,_RNvMs0_NtNtCskc4teZ54Auy_8pjson_rs6stream23compression_integrationNtB5_21StreamingDecompressor21decompress_dictionary
FNDA:0,_RNvMs0_NtNtCskc4teZ54Auy_8pjson_rs6stream23compression_integrationNtB5_21StreamingDecompressor21decompress_run_length
FNDA:0,_RNvMs0_NtNtCskc4teZ54Auy_8pjson_rs6stream23compression_integrationNtB5_21StreamingDecompressor26update_decompression_stats
FNDA:0,_RNvMs0_NtNtCskc4teZ54Auy_8pjson_rs6stream23compression_integrationNtB5_21StreamingDecompressor3new
FNDA:0,_RNvMs0_NtNtCskc4teZ54Auy_8pjson_rs6stream23compression_integrationNtB5_21StreamingDecompressor9get_stats
FNDA:0,_RNvMs_NtNtCskc4teZ54Auy_8pjson_rs6stream23compression_integrationNtB4_16CompressionStats11bytes_saved
FNDA:0,_RNvMs_NtNtCskc4teZ54Auy_8pjson_rs6stream23compression_integrationNtB4_16CompressionStats16percentage_saved
FNDA:0,_RNvMs_NtNtCskc4teZ54Auy_8pjson_rs6stream23compression_integrationNtB4_16CompressionStats25overall_compression_ratio
FNDA:0,_RNvMs_NtNtCskc4teZ54Auy_8pjson_rs6stream23compression_integrationNtB4_16CompressionStats26priority_compression_ratio
FNDA:0,_RNvXs1_NtNtCskc4teZ54Auy_8pjson_rs6stream23compression_integrationNtB5_19StreamingCompressorNtNtCsd2KPTObkMr_4core7default7Default7default
FNDA:0,_RNvXs2_NtNtCskc4teZ54Auy_8pjson_rs6stream23compression_integrationNtB5_21StreamingDecompressorNtNtCsd2KPTObkMr_4core7default7Default7default
FNDA:0,_RNCNvMNtNtCskc4teZ54Auy_8pjson_rs6stream23compression_integrationNtB4_19StreamingCompressor14compress_frame0B8_
FNDA:0,_RNCNvMs0_NtNtCskc4teZ54Auy_8pjson_rs6stream23compression_integrationNtB7_21StreamingDecompressor21decompress_dictionary0Bb_
FNF:26
FNH:0
DA:62,0
DA:63,0
DA:64,0
DA:65,0
DA:66,0
DA:67,0
DA:68,0
DA:71,0
DA:72,0
DA:73,0
DA:74,0
DA:75,0
DA:76,0
DA:77,0
DA:78,0
DA:79,0
DA:80,0
DA:83,0
DA:84,0
DA:87,0
DA:88,0
DA:89,0
DA:92,0
DA:95,0
DA:98,0
DA:100,0
DA:101,0
DA:102,0
DA:103,0
DA:104,0
DA:105,0
DA:108,0
DA:110,0
DA:113,0
DA:115,0
DA:116,0
DA:117,0
DA:119,0
DA:120,0
DA:123,0
DA:124,0
DA:125,0
DA:128,0
DA:129,0
DA:130,0
DA:133,0
DA:134,0
DA:136,0
DA:138,0
DA:140,0
DA:143,0
DA:144,0
DA:145,0
DA:146,0
DA:148,0
DA:149,0
DA:151,0
DA:154,0
DA:155,0
DA:158,0
DA:159,0
DA:160,0
DA:163,0
DA:164,0
DA:165,0
DA:166,0
DA:167,0
DA:168,0
DA:169,0
DA:170,0
DA:171,0
DA:172,0
DA:173,0
DA:174,0
DA:175,0
DA:178,0
DA:179,0
DA:180,0
DA:181,0
DA:182,0
DA:183,0
DA:184,0
DA:189,0
DA:190,0
DA:191,0
DA:192,0
DA:193,0
DA:194,0
DA:197,0
DA:198,0
DA:199,0
DA:202,0
DA:203,0
DA:204,0
DA:207,0
DA:208,0
DA:209,0
DA:210,0
DA:211,0
DA:212,0
DA:213,0
DA:239,0
DA:240,0
DA:241,0
DA:242,0
DA:243,0
DA:244,0
DA:245,0
DA:248,0
DA:249,0
DA:252,0
DA:255,0
DA:256,0
DA:257,0
DA:258,0
DA:261,0
DA:262,0
DA:264,0
DA:265,0
DA:266,0
DA:267,0
DA:268,0
DA:269,0
DA:272,0
DA:274,0
DA:275,0
DA:276,0
DA:279,0
DA:280,0
DA:281,0
DA:283,0
DA:284,0
DA:287,0
DA:288,0
DA:289,0
DA:292,0
DA:296,0
DA:300,0
DA:305,0
DA:306,0
DA:309,0
DA:312,0
DA:313,0
DA:314,0
DA:315,0
DA:316,0
DA:317,0
DA:319,0
DA:321,0
DA:322,0
DA:323,0
DA:324,0
DA:325,0
DA:327,0
DA:329,0
DA:330,0
DA:331,0
DA:332,0
DA:333,0
DA:334,0
DA:336,0
DA:338,0
DA:341,0
DA:344,0
DA:345,0
DA:348,0
DA:350,0
DA:351,0
DA:354,0
DA:355,0
DA:357,0
DA:358,0
DA:359,0
DA:361,0
DA:362,0
DA:363,0
DA:364,0
DA:365,0
DA:366,0
DA:367,0
DA:368,0
DA:369,0
DA:370,0
DA:373,0
DA:374,0
DA:375,0
DA:379,0
DA:380,0
DA:381,0
DA:385,0
DA:386,0
DA:387,0
BRF:0
BRH:0
LF:194
LH:0
end_of_record
SF:/Users/a.gerasimchuk/Documents/git/pjs/crates/pjs-core/src/stream/mod.rs
FN:82,_RNvMs_NtCskc4teZ54Auy_8pjson_rs6streamNtB4_15StreamProcessor13process_frame
FN:73,_RNvMs_NtCskc4teZ54Auy_8pjson_rs6streamNtB4_15StreamProcessor3new
FN:110,_RNvMs_NtCskc4teZ54Auy_8pjson_rs6streamNtB4_15StreamProcessor5flush
FN:115,_RNvMs_NtCskc4teZ54Auy_8pjson_rs6streamNtB4_15StreamProcessor5stats
FN:53,_RNvXNtCskc4teZ54Auy_8pjson_rs6streamNtB2_12StreamConfigNtNtCsd2KPTObkMr_4core7default7Default7default
FN:85,_RNCNvMs_NtCskc4teZ54Auy_8pjson_rs6streamNtB6_15StreamProcessor13process_frame0B8_
FNDA:0,_RNvMs_NtCskc4teZ54Auy_8pjson_rs6streamNtB4_15StreamProcessor13process_frame
FNDA:0,_RNvMs_NtCskc4teZ54Auy_8pjson_rs6streamNtB4_15StreamProcessor3new
FNDA:0,_RNvMs_NtCskc4teZ54Auy_8pjson_rs6streamNtB4_15StreamProcessor5flush
FNDA:0,_RNvMs_NtCskc4teZ54Auy_8pjson_rs6streamNtB4_15StreamProcessor5stats
FNDA:2,_RNvXNtCskc4teZ54Auy_8pjson_rs6streamNtB2_12StreamConfigNtNtCsd2KPTObkMr_4core7default7Default7default
FNDA:0,_RNCNvMs_NtCskc4teZ54Auy_8pjson_rs6streamNtB6_15StreamProcessor13process_frame0B8_
FNF:6
FNH:1
DA:53,2
DA:54,2
DA:55,2
DA:56,2
DA:57,2
DA:58,2
DA:59,2
DA:60,2
DA:73,0
DA:74,0
DA:75,0
DA:76,0
DA:77,0
DA:78,0
DA:79,0
DA:82,0
DA:84,0
DA:85,0
DA:86,0
DA:88,0
DA:89,0
DA:90,0
DA:91,0
DA:92,0
DA:93,0
DA:94,0
DA:97,0
DA:98,0
DA:101,0
DA:102,0
DA:103,0
DA:105,0
DA:107,0
DA:110,0
DA:111,0
DA:112,0
DA:115,0
DA:116,0
DA:117,0
DA:118,0
DA:119,0
DA:120,0
DA:121,0
BRF:0
BRH:0
LF:44
LH:8
end_of_record